; Listing generated by Microsoft (R) Optimizing Compiler Version 16.00.40219.01 

	TITLE	C:\Matrix Games\Source\Stars45\Sim.cpp
	.686P
	.XMM
	include listing.inc
	.model	flat

INCLUDELIB OLDNAMES

PUBLIC	??_R4Resource@@6B@				; Resource::`RTTI Complete Object Locator'
PUBLIC	??_R4Bitmap@@6B@				; Bitmap::`RTTI Complete Object Locator'
PUBLIC	??_R3Bitmap@@8					; Bitmap::`RTTI Class Hierarchy Descriptor'
PUBLIC	??_R2Bitmap@@8					; Bitmap::`RTTI Base Class Array'
PUBLIC	??_R1A@?0A@EA@Resource@@8			; Resource::`RTTI Base Class Descriptor at (0,-1,0,64)'
PUBLIC	??_R3Resource@@8				; Resource::`RTTI Class Hierarchy Descriptor'
PUBLIC	??_R2Resource@@8				; Resource::`RTTI Base Class Array'
PUBLIC	??_R0?AVResource@@@8				; Resource `RTTI Type Descriptor'
PUBLIC	??_R1A@?0A@EA@Bitmap@@8				; Bitmap::`RTTI Base Class Descriptor at (0,-1,0,64)'
PUBLIC	??_R0?AVBitmap@@@8				; Bitmap `RTTI Type Descriptor'
PUBLIC	?InsertObject@SimRegion@@UAEXPAVShip@@@Z	; SimRegion::InsertObject
PUBLIC	?InsertObject@SimRegion@@UAEXPAVShot@@@Z	; SimRegion::InsertObject
PUBLIC	?InsertObject@SimRegion@@UAEXPAVExplosion@@@Z	; SimRegion::InsertObject
PUBLIC	?InsertObject@SimRegion@@UAEXPAVDebris@@@Z	; SimRegion::InsertObject
PUBLIC	?InsertObject@SimRegion@@UAEXPAVAsteroid@@@Z	; SimRegion::InsertObject
PUBLIC	?FindShotByObjID@SimRegion@@UAEPAVShot@@K@Z	; SimRegion::FindShotByObjID
PUBLIC	?FindShipByObjID@SimRegion@@UAEPAVShip@@K@Z	; SimRegion::FindShipByObjID
PUBLIC	?ExecFrame@SimRegion@@UAEXN@Z			; SimRegion::ExecFrame
PUBLIC	?Deactivate@SimRegion@@UAEXXZ			; SimRegion::Deactivate
PUBLIC	?Activate@SimRegion@@UAEXXZ			; SimRegion::Activate
PUBLIC	??_R4SimRegion@@6B@				; SimRegion::`RTTI Complete Object Locator'
PUBLIC	??_R3SimRegion@@8				; SimRegion::`RTTI Class Hierarchy Descriptor'
PUBLIC	??_R2SimRegion@@8				; SimRegion::`RTTI Base Class Array'
PUBLIC	??_R1A@?0A@EA@SimRegion@@8			; SimRegion::`RTTI Base Class Descriptor at (0,-1,0,64)'
PUBLIC	??_R0?AVSimRegion@@@8				; SimRegion `RTTI Type Descriptor'
PUBLIC	?FindShotByObjID@Sim@@UAEPAVShot@@K@Z		; Sim::FindShotByObjID
PUBLIC	?FindShipByObjID@Sim@@UAEPAVShip@@K@Z		; Sim::FindShipByObjID
PUBLIC	?ExecFrame@Sim@@UAEXN@Z				; Sim::ExecFrame
PUBLIC	??_R4Sim@@6B@					; Sim::`RTTI Complete Object Locator'
PUBLIC	??_R3Sim@@8					; Sim::`RTTI Class Hierarchy Descriptor'
PUBLIC	??_R2Sim@@8					; Sim::`RTTI Base Class Array'
PUBLIC	??_R1A@?0A@EA@Sim@@8				; Sim::`RTTI Base Class Descriptor at (0,-1,0,64)'
PUBLIC	??_R0?AVSim@@@8					; Sim `RTTI Type Descriptor'
PUBLIC	??_R4Universe@@6B@				; Universe::`RTTI Complete Object Locator'
PUBLIC	??_R3Universe@@8				; Universe::`RTTI Class Hierarchy Descriptor'
PUBLIC	??_R2Universe@@8				; Universe::`RTTI Base Class Array'
PUBLIC	??_R1A@?0A@EA@Universe@@8			; Universe::`RTTI Base Class Descriptor at (0,-1,0,64)'
PUBLIC	??_R0?AVUniverse@@@8				; Universe `RTTI Type Descriptor'
PUBLIC	??0Universe@@QAE@XZ				; Universe::Universe
PUBLIC	??0?$List@VSimHyper@@@@QAE@XZ			; List<SimHyper>::List<SimHyper>
PUBLIC	??0?$List@VSimSplash@@@@QAE@XZ			; List<SimSplash>::List<SimSplash>
PUBLIC	?ExecFrame@Universe@@UAEXN@Z			; Universe::ExecFrame
PUBLIC	??_GUniverse@@UAEPAXI@Z				; Universe::`scalar deleting destructor'
PUBLIC	??1Universe@@UAE@XZ				; Universe::~Universe
PUBLIC	??1?$List@VSimHyper@@@@QAE@XZ			; List<SimHyper>::~List<SimHyper>
PUBLIC	??1?$List@VSimSplash@@@@QAE@XZ			; List<SimSplash>::~List<SimSplash>
PUBLIC	??_GSim@@UAEPAXI@Z				; Sim::`scalar deleting destructor'
PUBLIC	?GetCombatGroup@ShipStats@@QBEPAVCombatGroup@@XZ ; ShipStats::GetCombatGroup
PUBLIC	?GetElementIndex@ShipStats@@QBEHXZ		; ShipStats::GetElementIndex
PUBLIC	?IsPlayer@ShipStats@@QBE_NXZ			; ShipStats::IsPlayer
PUBLIC	?destroy@?$List@VSimRegion@@@@QAEXXZ		; List<SimRegion>::destroy
PUBLIC	?destroy@?$List@VElement@@@@QAEXXZ		; List<Element>::destroy
PUBLIC	??8Model@@QBEHABV0@@Z				; Model::operator==
PUBLIC	?index@?$List@VModel@@@@QBEHPBVModel@@@Z	; List<Model>::index
PUBLIC	?contains@?$List@VModel@@@@QBE_NPBVModel@@@Z	; List<Model>::contains
PUBLIC	??0?$ListIter@VModel@@@@QAE@AAV?$List@VModel@@@@@Z ; ListIter<Model>::ListIter<Model>
PUBLIC	?next@?$ListIter@VModel@@@@QAEPAVModel@@XZ	; ListIter<Model>::next
PUBLIC	??E?$ListIter@VModel@@@@QAEHXZ			; ListIter<Model>::operator++
PUBLIC	?value@?$ListIter@VModel@@@@QAEPAVModel@@XZ	; ListIter<Model>::value
PUBLIC	?Dust@Starshatter@@QAEHXZ			; Starshatter::Dust
PUBLIC	?NumDust@StarSystem@@QBEHXZ			; StarSystem::NumDust
PUBLIC	?Stardate@Mission@@QBENXZ			; Mission::Stardate
PUBLIC	?Links@OrbitalRegion@@QAEAAV?$List@VText@@@@XZ	; OrbitalRegion::Links
PUBLIC	?SetShipClass@ShipStats@@QAEXH@Z		; ShipStats::SetShipClass
PUBLIC	?SetInvulnerable@Ship@@QAEX_N@Z			; Ship::SetInvulnerable
PUBLIC	?UseSkin@Ship@@QAEXPBVSkin@@@Z			; Ship::UseSkin
PUBLIC	?SetPlayer@Element@@QAEXH@Z			; Element::SetPlayer
PUBLIC	?SetRogue@Element@@QAEX_N@Z			; Element::SetRogue
PUBLIC	?SetPlayable@Element@@QAEX_N@Z			; Element::SetPlayable
PUBLIC	?SetCommandAILevel@Element@@QAEXH@Z		; Element::SetCommandAILevel
PUBLIC	?SetCount@Element@@QAEXH@Z			; Element::SetCount
PUBLIC	?IsRogue@MissionElement@@QBE_NXZ		; MissionElement::IsRogue
PUBLIC	?IsInvulnerable@MissionElement@@QBE_NXZ		; MissionElement::IsInvulnerable
PUBLIC	?GetSkin@MissionShip@@QBEPBVSkin@@XZ		; MissionShip::GetSkin
PUBLIC	??D?$ListIter@VText@@@@QAEAAVText@@XZ		; ListIter<Text>::operator*
PUBLIC	??_GResource@@UAEPAXI@Z				; Resource::`scalar deleting destructor'
PUBLIC	??0Resource@@QAE@ABV0@@Z			; Resource::Resource
PUBLIC	??_GBitmap@@UAEPAXI@Z				; Bitmap::`scalar deleting destructor'
PUBLIC	??0Bitmap@@QAE@ABV0@@Z				; Bitmap::Bitmap
PUBLIC	??0MissionEvent@@QAE@ABV0@@Z			; MissionEvent::MissionEvent
PUBLIC	?remove@?$List@VElement@@@@QAEPAVElement@@PBV2@@Z ; List<Element>::remove
PUBLIC	?at@?$List@VElement@@@@QAEAAPAVElement@@H@Z	; List<Element>::at
PUBLIC	?GetAssignment@Element@@QBEPAV1@XZ		; Element::GetAssignment
PUBLIC	?resize@?$List@VSimSplash@@@@AAEXH@Z		; List<SimSplash>::resize
PUBLIC	?append@?$List@VSimSplash@@@@QAEXPBVSimSplash@@@Z ; List<SimSplash>::append
PUBLIC	??0SimSplash@@QAE@PAVSimRegion@@ABUPoint@@NN@Z	; SimSplash::SimSplash
PUBLIC	?GetPlayerShip@SimRegion@@QAEPAVShip@@XZ	; SimRegion::GetPlayerShip
PUBLIC	??A?$List@VElement@@@@QAEAAPAVElement@@H@Z	; List<Element>::operator[]
PUBLIC	?resize@?$List@VSimHyper@@@@AAEXH@Z		; List<SimHyper>::resize
PUBLIC	?append@?$List@VSimHyper@@@@QAEXPBVSimHyper@@@Z	; List<SimHyper>::append
PUBLIC	??0SimHyper@@QAE@PAVShip@@PAVSimRegion@@ABUPoint@@H_N00@Z ; SimHyper::SimHyper
PUBLIC	?removeIndex@?$List@VSimRegion@@@@QAEPAVSimRegion@@H@Z ; List<SimRegion>::removeIndex
PUBLIC	?clear@?$List@VSimRegion@@@@QAEXXZ		; List<SimRegion>::clear
PUBLIC	?isEmpty@?$List@VSimRegion@@@@QBE_NXZ		; List<SimRegion>::isEmpty
PUBLIC	??C?$ListIter@VSimRegion@@@@QAEPAVSimRegion@@XZ	; ListIter<SimRegion>::operator->
PUBLIC	?TYPENAME@SimObserver@@SAPBDXZ			; SimObserver::TYPENAME
PUBLIC	?check@?$List@VElement@@@@ABE_NAAH@Z		; List<Element>::check
PUBLIC	?removeIndex@?$List@VElement@@@@QAEPAVElement@@H@Z ; List<Element>::removeIndex
PUBLIC	?removeItem@?$ListIter@VElement@@@@QAEPAVElement@@XZ ; ListIter<Element>::removeItem
PUBLIC	?Roll@Physical@@QBENXZ				; Physical::Roll
PUBLIC	?Pitch@Physical@@QBENXZ				; Physical::Pitch
PUBLIC	?Yaw@Physical@@QBENXZ				; Physical::Yaw
PUBLIC	??A?$List@VSimRegion@@@@QAEAAPAVSimRegion@@H@Z	; List<SimRegion>::operator[]
PUBLIC	?destroy@?$List@VSimHyper@@@@QAEXXZ		; List<SimHyper>::destroy
PUBLIC	?size@?$List@VSimHyper@@@@QBEHXZ		; List<SimHyper>::size
PUBLIC	??0?$ListIter@VSimHyper@@@@QAE@AAV?$List@VSimHyper@@@@@Z ; ListIter<SimHyper>::ListIter<SimHyper>
PUBLIC	?next@?$ListIter@VSimHyper@@@@QAEPAVSimHyper@@XZ ; ListIter<SimHyper>::next
PUBLIC	??E?$ListIter@VSimHyper@@@@QAEHXZ		; ListIter<SimHyper>::operator++
PUBLIC	?value@?$ListIter@VSimHyper@@@@QAEPAVSimHyper@@XZ ; ListIter<SimHyper>::value
PUBLIC	??1SimSplash@@QAE@XZ				; SimSplash::~SimSplash
PUBLIC	??_GSimSplash@@QAEPAXI@Z			; SimSplash::`scalar deleting destructor'
PUBLIC	?destroy@?$List@VSimSplash@@@@QAEXXZ		; List<SimSplash>::destroy
PUBLIC	?size@?$List@VSimSplash@@@@QBEHXZ		; List<SimSplash>::size
PUBLIC	??0?$ListIter@VSimSplash@@@@QAE@AAV?$List@VSimSplash@@@@@Z ; ListIter<SimSplash>::ListIter<SimSplash>
PUBLIC	?next@?$ListIter@VSimSplash@@@@QAEPAVSimSplash@@XZ ; ListIter<SimSplash>::next
PUBLIC	??E?$ListIter@VSimSplash@@@@QAEHXZ		; ListIter<SimSplash>::operator++
PUBLIC	?value@?$ListIter@VSimSplash@@@@QAEPAVSimSplash@@XZ ; ListIter<SimSplash>::value
PUBLIC	?IsPending@MissionEvent@@QBE_NXZ		; MissionEvent::IsPending
PUBLIC	?IsActive@MissionEvent@@QBE_NXZ			; MissionEvent::IsActive
PUBLIC	?Player@Element@@QBEHXZ				; Element::Player
PUBLIC	?IsRogue@Element@@QBE_NXZ			; Element::IsRogue
PUBLIC	?IsPlayable@Element@@QBE_NXZ			; Element::IsPlayable
PUBLIC	?GetCommandAILevel@Element@@QBEHXZ		; Element::GetCommandAILevel
PUBLIC	?GetSquadron@Element@@QBEABVText@@XZ		; Element::GetSquadron
PUBLIC	?GetCount@Element@@QBEHXZ			; Element::GetCount
PUBLIC	?SetPath@MissionElement@@QAEXPBD@Z		; MissionElement::SetPath
PUBLIC	?SetRogue@MissionElement@@QAEX_N@Z		; MissionElement::SetRogue
PUBLIC	?SetZoneLock@MissionElement@@QAEXH@Z		; MissionElement::SetZoneLock
PUBLIC	?AddInstruction@MissionElement@@QAEXPBD@Z	; MissionElement::AddInstruction
PUBLIC	?SetDecoys@MissionShip@@QAEXH@Z			; MissionShip::SetDecoys
PUBLIC	?SetProbes@MissionShip@@QAEXH@Z			; MissionShip::SetProbes
PUBLIC	??0?$List@VDrone@@@@QAE@XZ			; List<Drone>::List<Drone>
PUBLIC	??0?$List@VExplosion@@@@QAE@XZ			; List<Explosion>::List<Explosion>
PUBLIC	??0?$List@VDebris@@@@QAE@XZ			; List<Debris>::List<Debris>
PUBLIC	??0?$List@VAsteroid@@@@QAE@XZ			; List<Asteroid>::List<Asteroid>
PUBLIC	?System@Orbital@@QBEPAVStarSystem@@XZ		; Orbital::System
PUBLIC	?Asteroids@OrbitalRegion@@QBEHXZ		; OrbitalRegion::Asteroids
PUBLIC	?destroy@?$List@VShip@@@@QAEXXZ			; List<Ship>::destroy
PUBLIC	?destroy@?$List@VShot@@@@QAEXXZ			; List<Shot>::destroy
PUBLIC	??1?$List@VDrone@@@@QAE@XZ			; List<Drone>::~List<Drone>
PUBLIC	??1?$List@VExplosion@@@@QAE@XZ			; List<Explosion>::~List<Explosion>
PUBLIC	?destroy@?$List@VExplosion@@@@QAEXXZ		; List<Explosion>::destroy
PUBLIC	??1?$List@VDebris@@@@QAE@XZ			; List<Debris>::~List<Debris>
PUBLIC	?destroy@?$List@VDebris@@@@QAEXXZ		; List<Debris>::destroy
PUBLIC	??1?$List@VAsteroid@@@@QAE@XZ			; List<Asteroid>::~List<Asteroid>
PUBLIC	?destroy@?$List@VAsteroid@@@@QAEXXZ		; List<Asteroid>::destroy
PUBLIC	??_GSimRegion@@UAEPAXI@Z			; SimRegion::`scalar deleting destructor'
PUBLIC	??C?$ListIter@VExplosion@@@@QAEPAVExplosion@@XZ	; ListIter<Explosion>::operator->
PUBLIC	??C?$ListIter@VDebris@@@@QAEPAVDebris@@XZ	; ListIter<Debris>::operator->
PUBLIC	?GetMaxFrameLength@Game@@SANXZ			; Game::GetMaxFrameLength
PUBLIC	??C?$ListIter@VAsteroid@@@@QAEPAVAsteroid@@XZ	; ListIter<Asteroid>::operator->
PUBLIC	?SetAIMode@Ship@@QAEXH@Z			; Ship::SetAIMode
PUBLIC	??0?$ListIter@VExplosion@@@@QAE@AAV?$List@VExplosion@@@@@Z ; ListIter<Explosion>::ListIter<Explosion>
PUBLIC	?next@?$ListIter@VExplosion@@@@QAEPAVExplosion@@XZ ; ListIter<Explosion>::next
PUBLIC	??E?$ListIter@VExplosion@@@@QAEHXZ		; ListIter<Explosion>::operator++
PUBLIC	?value@?$ListIter@VExplosion@@@@QAEPAVExplosion@@XZ ; ListIter<Explosion>::value
PUBLIC	?removeItem@?$ListIter@VExplosion@@@@QAEPAVExplosion@@XZ ; ListIter<Explosion>::removeItem
PUBLIC	?AddCommandPoints@ShipStats@@QAEXH@Z		; ShipStats::AddCommandPoints
PUBLIC	?SetHitTarget@Shot@@QAEX_N@Z			; Shot::SetHitTarget
PUBLIC	?SetLife@Drone@@QAEXH@Z				; Drone::SetLife
PUBLIC	?size@?$List@VDebris@@@@QBEHXZ			; List<Debris>::size
PUBLIC	?removeItem@?$ListIter@VDebris@@@@QAEPAVDebris@@XZ ; ListIter<Debris>::removeItem
PUBLIC	?TYPENAME@Drone@@SAPBDXZ			; Drone::TYPENAME
PUBLIC	?check@?$List@VDrone@@@@ABE_NAAH@Z		; List<Drone>::check
PUBLIC	?removeIndex@?$List@VDrone@@@@QAEPAVDrone@@H@Z	; List<Drone>::removeIndex
PUBLIC	?remove@?$List@VDrone@@@@QAEPAVDrone@@PBV2@@Z	; List<Drone>::remove
PUBLIC	?removeItem@?$ListIter@VShot@@@@QAEPAVShot@@XZ	; ListIter<Shot>::removeItem
PUBLIC	?IsTestMode@Sim@@QBE_NXZ			; Sim::IsTestMode
PUBLIC	?Registry@Ship@@QBEPBDXZ			; Ship::Registry
PUBLIC	?RespawnLoc@Ship@@QBEABUPoint@@XZ		; Ship::RespawnLoc
PUBLIC	?GetCarrier@Ship@@QBEPAV1@XZ			; Ship::GetCarrier
PUBLIC	?removeItem@?$ListIter@VShip@@@@QAEPAVShip@@XZ	; ListIter<Ship>::removeItem
PUBLIC	?resize@?$List@VDrone@@@@AAEXH@Z		; List<Drone>::resize
PUBLIC	?append@?$List@VDrone@@@@QAEXPBVDrone@@@Z	; List<Drone>::append
PUBLIC	?resize@?$List@VExplosion@@@@AAEXH@Z		; List<Explosion>::resize
PUBLIC	?append@?$List@VExplosion@@@@QAEXPBVExplosion@@@Z ; List<Explosion>::append
PUBLIC	?TYPENAME@Explosion@@SAPBDXZ			; Explosion::TYPENAME
PUBLIC	?check@?$List@VExplosion@@@@ABE_NAAH@Z		; List<Explosion>::check
PUBLIC	?removeIndex@?$List@VExplosion@@@@QAEPAVExplosion@@H@Z ; List<Explosion>::removeIndex
PUBLIC	?remove@?$List@VExplosion@@@@QAEPAVExplosion@@PBV2@@Z ; List<Explosion>::remove
PUBLIC	?resize@?$List@VDebris@@@@AAEXH@Z		; List<Debris>::resize
PUBLIC	?append@?$List@VDebris@@@@QAEXPBVDebris@@@Z	; List<Debris>::append
PUBLIC	?check@?$List@VDebris@@@@ABE_NAAH@Z		; List<Debris>::check
PUBLIC	?removeIndex@?$List@VDebris@@@@QAEPAVDebris@@H@Z ; List<Debris>::removeIndex
PUBLIC	?remove@?$List@VDebris@@@@QAEPAVDebris@@PBV2@@Z	; List<Debris>::remove
PUBLIC	?resize@?$List@VAsteroid@@@@AAEXH@Z		; List<Asteroid>::resize
PUBLIC	?append@?$List@VAsteroid@@@@QAEXPBVAsteroid@@@Z	; List<Asteroid>::append
PUBLIC	?check@?$List@VAsteroid@@@@ABE_NAAH@Z		; List<Asteroid>::check
PUBLIC	?removeIndex@?$List@VAsteroid@@@@QAEPAVAsteroid@@H@Z ; List<Asteroid>::removeIndex
PUBLIC	?remove@?$List@VAsteroid@@@@QAEPAVAsteroid@@PBV2@@Z ; List<Asteroid>::remove
PUBLIC	?SetRegion@CombatGroup@@QAEXVText@@@Z		; CombatGroup::SetRegion
PUBLIC	??_C@_0M@EIEAPHAO@SimObserver?$AA@		; `string'
PUBLIC	??_C@_0CJ@PFCIGFIG@c?3?2matrix?5games?2source?2stars45?2M@ ; `string'
PUBLIC	??_C@_0BC@CAMCFAKE@Collateral?5Damage?$AA@	; `string'
PUBLIC	?sim@Sim@@1PAV1@A				; Sim::sim
PUBLIC	??_C@_0BE@MDJAGKKE@?6?6FINAL?5SCORE?5?8?$CFs?8?6?$AA@ ; `string'
PUBLIC	??_C@_0DP@BCONEFGH@Name?5?5?5?5?5?5?5?5?5?5?5?5?5?5Kill1?5?5Kill2?5?5@ ; `string'
PUBLIC	??_C@_0DO@BFFMOOLB@?9?9?9?9?9?9?9?9?9?9?9?9?9?9?9?9?5?5?9?9?9?9?9?5?5?9?9?9?9?9?5?5@ ; `string'
PUBLIC	??_C@_0CF@KFDPBJH@?$CF?916s?5?5?$CF5d?5?5?$CF5d?5?5?$CF5d?5?5?$CF5d?5?5?$CF6d?5?5@ ; `string'
PUBLIC	??_C@_0CO@IHAFINE@?9?9?9?9?9?9?9?9?9?9?9?9?9?9?9?9?9?9?9?9?9?9?9?9?9?9?9?9?9?9?9?9@ ; `string'
PUBLIC	??_C@_0CH@GLANDEFM@TOTAL?5?5?5?5?5?5?5?5?5?5?5?5?5?$CF5d?5?5?$CF5d?5?5?$CF5d?5@ ; `string'
PUBLIC	??_C@_0CN@BNNLBOCC@Sim?3?3ExecMission?$CI?$CJ?5?9?5No?5mission?5@ ; `string'
PUBLIC	??_C@_0DE@LJMJJDEL@Sim?3?3ExecMission?$CI?$CFs?$CJ?5mission?5is?5@ ; `string'
PUBLIC	??_C@_0BF@INLOODOL@?6Exec?5Mission?3?5?8?$CFs?8?6?$AA@ ; `string'
PUBLIC	??_C@_07MHJMBJCP@Sim?4cpp?$AA@			; `string'
PUBLIC	??_C@_0CJ@IICEGJCO@WARNING?3?5alert?5ship?5?8?$CFs?8?5region?5@ ; `string'
PUBLIC	??_C@_0N@CNEAMPHK@Unidentified?$AA@		; `string'
PUBLIC	??_C@_0CJ@BABHFBHK@WARNING?3?5CreateShip?$CI?$CFs?$CJ?3?5invalid@ ; `string'
PUBLIC	??_C@_0CJ@POPAIFMC@Inserting?5Ship?$CI?$CFs?$CJ?5into?5Region?$CI?$CF@ ; `string'
PUBLIC	??_C@_0EB@OCIFAMJD@WARNING?3?5Sim?3?3ActivateRegion?$CI?$CJ?5N@ ; `string'
PUBLIC	??_C@_0BL@GPICPCGA@Ship?5?8?$CFs?8?5farcast?5to?5?8?$CFs?8?6?$AA@ ; `string'
PUBLIC	??_C@_0BP@KPJAHLOO@Ship?5?8?$CFs?8?5broke?5orbit?5to?5?8?$CFs?8?6?$AA@ ; `string'
PUBLIC	??_C@_0BP@EADKDGGP@Ship?5?8?$CFs?8?5achieved?5orbit?5?8?$CFs?8?6?$AA@ ; `string'
PUBLIC	??_C@_0BL@BLBMKKEF@Ship?5?8?$CFs?8?5quantum?5to?5?8?$CFs?8?6?$AA@ ; `string'
PUBLIC	??_C@_0CN@DDGAJNGP@Warning?3?5Unusual?5jump?5request?5fo@ ; `string'
PUBLIC	??_C@_0BH@IBFIGKOO@?5?5?5?5?$CFs?5Killed?5?$CFs?5?$CI?$CFs?$CJ?6?$AA@ ; `string'
PUBLIC	??_C@_0M@PMIPMFJL@?1Mods?1Ships?$AA@		; `string'
PUBLIC	??_C@_06OJHGLDPL@?$CInull?$CJ?$AA@		; `string'
PUBLIC	??_C@_0DN@GOGEGHME@SimRegion?5?$CFs?5could?5not?5set?5playe@ ; `string'
PUBLIC	??_C@_05JPAGBMGJ@?$FLKIA?$FN?$AA@		; `string'
PUBLIC	??_C@_0CL@IBPHLHIK@?5?5?5ship?5?$CFs?5died?5in?5collision?5wit@ ; `string'
PUBLIC	??_C@_06CAKIJOOM@DEBRIS?$AA@			; `string'
PUBLIC	??_C@_08OJEDLGMF@ASTEROID?$AA@			; `string'
PUBLIC	??_C@_0CG@GLNEEKDA@?5?5?5?5ship?5destroyed?5by?5crash?3?5?$CFs?5@ ; `string'
PUBLIC	??_C@_0DA@FMJBEPL@Warning?3?5No?5Element?5found?5for?5?8?$CF@ ; `string'
PUBLIC	??_C@_0BH@CIBPJMDL@?5?5?5?5?$CFs?5Docked?5with?5?$CFs?6?$AA@ ; `string'
PUBLIC	??_C@_0BE@MNIJIMLO@?$CF02d?3?$CF02d?3?$CF02d?4?$CF03d?$AA@ ; `string'
PUBLIC	??_C@_0P@GCEINJHL@?$CF02d?3?$CF02d?4?$CF03d?$AA@ ; `string'
PUBLIC	??_7Universe@@6B@				; Universe::`vftable'
PUBLIC	??_7Sim@@6B@					; Sim::`vftable'
PUBLIC	??_7SimRegion@@6B@				; SimRegion::`vftable'
PUBLIC	??_7Bitmap@@6B@					; Bitmap::`vftable'
PUBLIC	??_7Resource@@6B@				; Resource::`vftable'
EXTRN	??_EUniverse@@UAEPAXI@Z:PROC			; Universe::`vector deleting destructor'
EXTRN	??_ESim@@UAEPAXI@Z:PROC				; Sim::`vector deleting destructor'
EXTRN	?GetVideo@Game@@SAPAVVideo@@XZ:PROC		; Game::GetVideo
EXTRN	??1Resource@@UAE@XZ:PROC			; Resource::~Resource
EXTRN	??_EResource@@UAEPAXI@Z:PROC			; Resource::`vector deleting destructor'
EXTRN	?GetSurface@Bitmap@@UAEPAEXZ:PROC		; Bitmap::GetSurface
EXTRN	?Pitch@Bitmap@@UBEHXZ:PROC			; Bitmap::Pitch
EXTRN	?PixSize@Bitmap@@UBEHXZ:PROC			; Bitmap::PixSize
EXTRN	?SkipGameTime@Game@@SAXN@Z:PROC			; Game::SkipGameTime
EXTRN	??_ESimRegion@@UAEPAXI@Z:PROC			; SimRegion::`vector deleting destructor'
EXTRN	?max_frame_length@Game@@1NA:QWORD		; Game::max_frame_length
EXTRN	?SetListener@Sound@@SAXABVCamera@@ABUVec3@@@Z:PROC ; Sound::SetListener
EXTRN	?SemiElasticCollision@Physical@@SAXAAV1@0@Z:PROC ; Physical::SemiElasticCollision
?sim@Sim@@1PAV1@A DD 01H DUP (?)			; Sim::sim
;	COMDAT ??_7Resource@@6B@
CONST	SEGMENT
??_7Resource@@6B@ DD FLAT:??_R4Resource@@6B@		; Resource::`vftable'
	DD	FLAT:??_EResource@@UAEPAXI@Z
CONST	ENDS
;	COMDAT ??_R4Resource@@6B@
rdata$r	SEGMENT
??_R4Resource@@6B@ DD 00H				; Resource::`RTTI Complete Object Locator'
	DD	00H
	DD	00H
	DD	FLAT:??_R0?AVResource@@@8
	DD	FLAT:??_R3Resource@@8
rdata$r	ENDS
;	COMDAT ??_7Bitmap@@6B@
CONST	SEGMENT
??_7Bitmap@@6B@ DD FLAT:??_R4Bitmap@@6B@		; Bitmap::`vftable'
	DD	FLAT:??_EBitmap@@UAEPAXI@Z
	DD	FLAT:?GetSurface@Bitmap@@UAEPAEXZ
	DD	FLAT:?Pitch@Bitmap@@UBEHXZ
	DD	FLAT:?PixSize@Bitmap@@UBEHXZ
CONST	ENDS
;	COMDAT ??_R4Bitmap@@6B@
rdata$r	SEGMENT
??_R4Bitmap@@6B@ DD 00H					; Bitmap::`RTTI Complete Object Locator'
	DD	00H
	DD	00H
	DD	FLAT:??_R0?AVBitmap@@@8
	DD	FLAT:??_R3Bitmap@@8
rdata$r	ENDS
;	COMDAT ??_R3Bitmap@@8
rdata$r	SEGMENT
??_R3Bitmap@@8 DD 00H					; Bitmap::`RTTI Class Hierarchy Descriptor'
	DD	00H
	DD	02H
	DD	FLAT:??_R2Bitmap@@8
rdata$r	ENDS
;	COMDAT ??_R2Bitmap@@8
rdata$r	SEGMENT
??_R2Bitmap@@8 DD FLAT:??_R1A@?0A@EA@Bitmap@@8		; Bitmap::`RTTI Base Class Array'
	DD	FLAT:??_R1A@?0A@EA@Resource@@8
rdata$r	ENDS
;	COMDAT ??_R1A@?0A@EA@Resource@@8
rdata$r	SEGMENT
??_R1A@?0A@EA@Resource@@8 DD FLAT:??_R0?AVResource@@@8	; Resource::`RTTI Base Class Descriptor at (0,-1,0,64)'
	DD	00H
	DD	00H
	DD	0ffffffffH
	DD	00H
	DD	040H
	DD	FLAT:??_R3Resource@@8
rdata$r	ENDS
;	COMDAT ??_R3Resource@@8
rdata$r	SEGMENT
??_R3Resource@@8 DD 00H					; Resource::`RTTI Class Hierarchy Descriptor'
	DD	00H
	DD	01H
	DD	FLAT:??_R2Resource@@8
rdata$r	ENDS
;	COMDAT ??_R2Resource@@8
rdata$r	SEGMENT
??_R2Resource@@8 DD FLAT:??_R1A@?0A@EA@Resource@@8	; Resource::`RTTI Base Class Array'
rdata$r	ENDS
;	COMDAT ??_R0?AVResource@@@8
_DATA	SEGMENT
??_R0?AVResource@@@8 DD FLAT:??_7type_info@@6B@		; Resource `RTTI Type Descriptor'
	DD	00H
	DB	'.?AVResource@@', 00H
_DATA	ENDS
;	COMDAT ??_R1A@?0A@EA@Bitmap@@8
rdata$r	SEGMENT
??_R1A@?0A@EA@Bitmap@@8 DD FLAT:??_R0?AVBitmap@@@8	; Bitmap::`RTTI Base Class Descriptor at (0,-1,0,64)'
	DD	01H
	DD	00H
	DD	0ffffffffH
	DD	00H
	DD	040H
	DD	FLAT:??_R3Bitmap@@8
rdata$r	ENDS
;	COMDAT ??_R0?AVBitmap@@@8
_DATA	SEGMENT
??_R0?AVBitmap@@@8 DD FLAT:??_7type_info@@6B@		; Bitmap `RTTI Type Descriptor'
	DD	00H
	DB	'.?AVBitmap@@', 00H
_DATA	ENDS
;	COMDAT ??_7SimRegion@@6B@
CONST	SEGMENT
??_7SimRegion@@6B@ DD FLAT:??_R4SimRegion@@6B@		; SimRegion::`vftable'
	DD	FLAT:??_ESimRegion@@UAEPAXI@Z
	DD	FLAT:?Activate@SimRegion@@UAEXXZ
	DD	FLAT:?Deactivate@SimRegion@@UAEXXZ
	DD	FLAT:?ExecFrame@SimRegion@@UAEXN@Z
	DD	FLAT:?FindShipByObjID@SimRegion@@UAEPAVShip@@K@Z
	DD	FLAT:?FindShotByObjID@SimRegion@@UAEPAVShot@@K@Z
	DD	FLAT:?InsertObject@SimRegion@@UAEXPAVAsteroid@@@Z
	DD	FLAT:?InsertObject@SimRegion@@UAEXPAVDebris@@@Z
	DD	FLAT:?InsertObject@SimRegion@@UAEXPAVExplosion@@@Z
	DD	FLAT:?InsertObject@SimRegion@@UAEXPAVShot@@@Z
	DD	FLAT:?InsertObject@SimRegion@@UAEXPAVShip@@@Z
CONST	ENDS
;	COMDAT ??_R4SimRegion@@6B@
rdata$r	SEGMENT
??_R4SimRegion@@6B@ DD 00H				; SimRegion::`RTTI Complete Object Locator'
	DD	00H
	DD	00H
	DD	FLAT:??_R0?AVSimRegion@@@8
	DD	FLAT:??_R3SimRegion@@8
rdata$r	ENDS
;	COMDAT ??_R3SimRegion@@8
rdata$r	SEGMENT
??_R3SimRegion@@8 DD 00H				; SimRegion::`RTTI Class Hierarchy Descriptor'
	DD	00H
	DD	01H
	DD	FLAT:??_R2SimRegion@@8
rdata$r	ENDS
;	COMDAT ??_R2SimRegion@@8
rdata$r	SEGMENT
??_R2SimRegion@@8 DD FLAT:??_R1A@?0A@EA@SimRegion@@8	; SimRegion::`RTTI Base Class Array'
rdata$r	ENDS
;	COMDAT ??_R1A@?0A@EA@SimRegion@@8
rdata$r	SEGMENT
??_R1A@?0A@EA@SimRegion@@8 DD FLAT:??_R0?AVSimRegion@@@8 ; SimRegion::`RTTI Base Class Descriptor at (0,-1,0,64)'
	DD	00H
	DD	00H
	DD	0ffffffffH
	DD	00H
	DD	040H
	DD	FLAT:??_R3SimRegion@@8
rdata$r	ENDS
;	COMDAT ??_R0?AVSimRegion@@@8
_DATA	SEGMENT
??_R0?AVSimRegion@@@8 DD FLAT:??_7type_info@@6B@	; SimRegion `RTTI Type Descriptor'
	DD	00H
	DB	'.?AVSimRegion@@', 00H
_DATA	ENDS
;	COMDAT ??_7Sim@@6B@
CONST	SEGMENT
??_7Sim@@6B@ DD	FLAT:??_R4Sim@@6B@			; Sim::`vftable'
	DD	FLAT:??_ESim@@UAEPAXI@Z
	DD	FLAT:?ExecFrame@Sim@@UAEXN@Z
	DD	FLAT:?FindShipByObjID@Sim@@UAEPAVShip@@K@Z
	DD	FLAT:?FindShotByObjID@Sim@@UAEPAVShot@@K@Z
CONST	ENDS
;	COMDAT ??_R4Sim@@6B@
rdata$r	SEGMENT
??_R4Sim@@6B@ DD 00H					; Sim::`RTTI Complete Object Locator'
	DD	00H
	DD	00H
	DD	FLAT:??_R0?AVSim@@@8
	DD	FLAT:??_R3Sim@@8
rdata$r	ENDS
;	COMDAT ??_R3Sim@@8
rdata$r	SEGMENT
??_R3Sim@@8 DD	00H					; Sim::`RTTI Class Hierarchy Descriptor'
	DD	00H
	DD	02H
	DD	FLAT:??_R2Sim@@8
rdata$r	ENDS
;	COMDAT ??_R2Sim@@8
rdata$r	SEGMENT
??_R2Sim@@8 DD	FLAT:??_R1A@?0A@EA@Sim@@8		; Sim::`RTTI Base Class Array'
	DD	FLAT:??_R1A@?0A@EA@Universe@@8
rdata$r	ENDS
;	COMDAT ??_R1A@?0A@EA@Sim@@8
rdata$r	SEGMENT
??_R1A@?0A@EA@Sim@@8 DD FLAT:??_R0?AVSim@@@8		; Sim::`RTTI Base Class Descriptor at (0,-1,0,64)'
	DD	01H
	DD	00H
	DD	0ffffffffH
	DD	00H
	DD	040H
	DD	FLAT:??_R3Sim@@8
rdata$r	ENDS
;	COMDAT ??_R0?AVSim@@@8
_DATA	SEGMENT
??_R0?AVSim@@@8 DD FLAT:??_7type_info@@6B@		; Sim `RTTI Type Descriptor'
	DD	00H
	DB	'.?AVSim@@', 00H
_DATA	ENDS
;	COMDAT ??_7Universe@@6B@
CONST	SEGMENT
??_7Universe@@6B@ DD FLAT:??_R4Universe@@6B@		; Universe::`vftable'
	DD	FLAT:??_EUniverse@@UAEPAXI@Z
	DD	FLAT:?ExecFrame@Universe@@UAEXN@Z
CONST	ENDS
;	COMDAT ??_R4Universe@@6B@
rdata$r	SEGMENT
??_R4Universe@@6B@ DD 00H				; Universe::`RTTI Complete Object Locator'
	DD	00H
	DD	00H
	DD	FLAT:??_R0?AVUniverse@@@8
	DD	FLAT:??_R3Universe@@8
rdata$r	ENDS
;	COMDAT ??_R3Universe@@8
rdata$r	SEGMENT
??_R3Universe@@8 DD 00H					; Universe::`RTTI Class Hierarchy Descriptor'
	DD	00H
	DD	01H
	DD	FLAT:??_R2Universe@@8
rdata$r	ENDS
;	COMDAT ??_R2Universe@@8
rdata$r	SEGMENT
??_R2Universe@@8 DD FLAT:??_R1A@?0A@EA@Universe@@8	; Universe::`RTTI Base Class Array'
rdata$r	ENDS
;	COMDAT ??_R1A@?0A@EA@Universe@@8
rdata$r	SEGMENT
??_R1A@?0A@EA@Universe@@8 DD FLAT:??_R0?AVUniverse@@@8	; Universe::`RTTI Base Class Descriptor at (0,-1,0,64)'
	DD	00H
	DD	00H
	DD	0ffffffffH
	DD	00H
	DD	040H
	DD	FLAT:??_R3Universe@@8
rdata$r	ENDS
;	COMDAT ??_R0?AVUniverse@@@8
_DATA	SEGMENT
??_R0?AVUniverse@@@8 DD FLAT:??_7type_info@@6B@		; Universe `RTTI Type Descriptor'
	DD	00H
	DB	'.?AVUniverse@@', 00H
_DATA	ENDS
;	COMDAT ??_C@_0P@GCEINJHL@?$CF02d?3?$CF02d?4?$CF03d?$AA@
CONST	SEGMENT
??_C@_0P@GCEINJHL@?$CF02d?3?$CF02d?4?$CF03d?$AA@ DB '%02d:%02d.%03d', 00H ; `string'
CONST	ENDS
;	COMDAT ??_C@_0BE@MNIJIMLO@?$CF02d?3?$CF02d?3?$CF02d?4?$CF03d?$AA@
CONST	SEGMENT
??_C@_0BE@MNIJIMLO@?$CF02d?3?$CF02d?3?$CF02d?4?$CF03d?$AA@ DB '%02d:%02d:'
	DB	'%02d.%03d', 00H				; `string'
CONST	ENDS
;	COMDAT ??_C@_0BH@CIBPJMDL@?5?5?5?5?$CFs?5Docked?5with?5?$CFs?6?$AA@
CONST	SEGMENT
??_C@_0BH@CIBPJMDL@?5?5?5?5?$CFs?5Docked?5with?5?$CFs?6?$AA@ DB '    %s D'
	DB	'ocked with %s', 0aH, 00H			; `string'
CONST	ENDS
;	COMDAT ??_C@_0DA@FMJBEPL@Warning?3?5No?5Element?5found?5for?5?8?$CF@
CONST	SEGMENT
??_C@_0DA@FMJBEPL@Warning?3?5No?5Element?5found?5for?5?8?$CF@ DB 'Warning'
	DB	': No Element found for ''%s'' on respawn.', 0aH, 00H ; `string'
CONST	ENDS
;	COMDAT ??_C@_0CG@GLNEEKDA@?5?5?5?5ship?5destroyed?5by?5crash?3?5?$CFs?5@
CONST	SEGMENT
??_C@_0CG@GLNEEKDA@?5?5?5?5ship?5destroyed?5by?5crash?3?5?$CFs?5@ DB '   '
	DB	' ship destroyed by crash: %s (%s)', 0aH, 00H ; `string'
CONST	ENDS
;	COMDAT ??_C@_08OJEDLGMF@ASTEROID?$AA@
CONST	SEGMENT
??_C@_08OJEDLGMF@ASTEROID?$AA@ DB 'ASTEROID', 00H	; `string'
CONST	ENDS
;	COMDAT ??_C@_06CAKIJOOM@DEBRIS?$AA@
CONST	SEGMENT
??_C@_06CAKIJOOM@DEBRIS?$AA@ DB 'DEBRIS', 00H		; `string'
CONST	ENDS
;	COMDAT ??_C@_0CL@IBPHLHIK@?5?5?5ship?5?$CFs?5died?5in?5collision?5wit@
CONST	SEGMENT
??_C@_0CL@IBPHLHIK@?5?5?5ship?5?$CFs?5died?5in?5collision?5wit@ DB '   sh'
	DB	'ip %s died in collision with %s (%s)', 0aH, 00H ; `string'
CONST	ENDS
;	COMDAT ??_C@_05JPAGBMGJ@?$FLKIA?$FN?$AA@
CONST	SEGMENT
??_C@_05JPAGBMGJ@?$FLKIA?$FN?$AA@ DB '[KIA]', 00H	; `string'
CONST	ENDS
;	COMDAT ??_C@_0DN@GOGEGHME@SimRegion?5?$CFs?5could?5not?5set?5playe@
CONST	SEGMENT
??_C@_0DN@GOGEGHME@SimRegion?5?$CFs?5could?5not?5set?5playe@ DB 'SimRegio'
	DB	'n %s could not set player ship ''%s'' - not in region', 0aH, 00H ; `string'
CONST	ENDS
;	COMDAT ??_C@_06OJHGLDPL@?$CInull?$CJ?$AA@
CONST	SEGMENT
??_C@_06OJHGLDPL@?$CInull?$CJ?$AA@ DB '(null)', 00H	; `string'
CONST	ENDS
;	COMDAT ??_C@_0M@PMIPMFJL@?1Mods?1Ships?$AA@
CONST	SEGMENT
??_C@_0M@PMIPMFJL@?1Mods?1Ships?$AA@ DB '/Mods/Ships', 00H ; `string'
CONST	ENDS
;	COMDAT ??_C@_0BH@IBFIGKOO@?5?5?5?5?$CFs?5Killed?5?$CFs?5?$CI?$CFs?$CJ?6?$AA@
CONST	SEGMENT
??_C@_0BH@IBFIGKOO@?5?5?5?5?$CFs?5Killed?5?$CFs?5?$CI?$CFs?$CJ?6?$AA@ DB ' '
	DB	'   %s Killed %s (%s)', 0aH, 00H		; `string'
CONST	ENDS
;	COMDAT ??_C@_0CN@DDGAJNGP@Warning?3?5Unusual?5jump?5request?5fo@
CONST	SEGMENT
??_C@_0CN@DDGAJNGP@Warning?3?5Unusual?5jump?5request?5fo@ DB 'Warning: Un'
	DB	'usual jump request for ship ''%s''', 0aH, 00H ; `string'
CONST	ENDS
;	COMDAT ??_C@_0BL@BLBMKKEF@Ship?5?8?$CFs?8?5quantum?5to?5?8?$CFs?8?6?$AA@
CONST	SEGMENT
??_C@_0BL@BLBMKKEF@Ship?5?8?$CFs?8?5quantum?5to?5?8?$CFs?8?6?$AA@ DB 'Shi'
	DB	'p ''%s'' quantum to ''%s''', 0aH, 00H	; `string'
CONST	ENDS
;	COMDAT ??_C@_0BP@EADKDGGP@Ship?5?8?$CFs?8?5achieved?5orbit?5?8?$CFs?8?6?$AA@
CONST	SEGMENT
??_C@_0BP@EADKDGGP@Ship?5?8?$CFs?8?5achieved?5orbit?5?8?$CFs?8?6?$AA@ DB 'S'
	DB	'hip ''%s'' achieved orbit ''%s''', 0aH, 00H	; `string'
CONST	ENDS
;	COMDAT ??_C@_0BP@KPJAHLOO@Ship?5?8?$CFs?8?5broke?5orbit?5to?5?8?$CFs?8?6?$AA@
CONST	SEGMENT
??_C@_0BP@KPJAHLOO@Ship?5?8?$CFs?8?5broke?5orbit?5to?5?8?$CFs?8?6?$AA@ DB 'S'
	DB	'hip ''%s'' broke orbit to ''%s''', 0aH, 00H	; `string'
CONST	ENDS
;	COMDAT ??_C@_0BL@GPICPCGA@Ship?5?8?$CFs?8?5farcast?5to?5?8?$CFs?8?6?$AA@
CONST	SEGMENT
??_C@_0BL@GPICPCGA@Ship?5?8?$CFs?8?5farcast?5to?5?8?$CFs?8?6?$AA@ DB 'Shi'
	DB	'p ''%s'' farcast to ''%s''', 0aH, 00H	; `string'
CONST	ENDS
;	COMDAT ??_C@_0EB@OCIFAMJD@WARNING?3?5Sim?3?3ActivateRegion?$CI?$CJ?5N@
CONST	SEGMENT
??_C@_0EB@OCIFAMJD@WARNING?3?5Sim?3?3ActivateRegion?$CI?$CJ?5N@ DB 'WARNI'
	DB	'NG: Sim::ActivateRegion() No star system found for rgn ''%s'''
	DB	00H						; `string'
CONST	ENDS
;	COMDAT ??_C@_0CJ@POPAIFMC@Inserting?5Ship?$CI?$CFs?$CJ?5into?5Region?$CI?$CF@
CONST	SEGMENT
??_C@_0CJ@POPAIFMC@Inserting?5Ship?$CI?$CFs?$CJ?5into?5Region?$CI?$CF@ DB 'I'
	DB	'nserting Ship(%s) into Region(%s) (%s)', 0aH, 00H ; `string'
CONST	ENDS
;	COMDAT ??_C@_0CJ@BABHFBHK@WARNING?3?5CreateShip?$CI?$CFs?$CJ?3?5invalid@
CONST	SEGMENT
??_C@_0CJ@BABHFBHK@WARNING?3?5CreateShip?$CI?$CFs?$CJ?3?5invalid@ DB 'WAR'
	DB	'NING: CreateShip(%s): invalid design', 0aH, 00H ; `string'
CONST	ENDS
;	COMDAT ??_C@_0N@CNEAMPHK@Unidentified?$AA@
CONST	SEGMENT
??_C@_0N@CNEAMPHK@Unidentified?$AA@ DB 'Unidentified', 00H ; `string'
CONST	ENDS
;	COMDAT ??_C@_0CJ@IICEGJCO@WARNING?3?5alert?5ship?5?8?$CFs?8?5region?5@
CONST	SEGMENT
??_C@_0CJ@IICEGJCO@WARNING?3?5alert?5ship?5?8?$CFs?8?5region?5@ DB 'WARNI'
	DB	'NG: alert ship ''%s'' region is null', 0aH, 00H ; `string'
CONST	ENDS
;	COMDAT ??_C@_07MHJMBJCP@Sim?4cpp?$AA@
CONST	SEGMENT
??_C@_07MHJMBJCP@Sim?4cpp?$AA@ DB 'Sim.cpp', 00H	; `string'
CONST	ENDS
;	COMDAT ??_C@_0BF@INLOODOL@?6Exec?5Mission?3?5?8?$CFs?8?6?$AA@
CONST	SEGMENT
??_C@_0BF@INLOODOL@?6Exec?5Mission?3?5?8?$CFs?8?6?$AA@ DB 0aH, 'Exec Miss'
	DB	'ion: ''%s''', 0aH, 00H			; `string'
CONST	ENDS
;	COMDAT ??_C@_0DE@LJMJJDEL@Sim?3?3ExecMission?$CI?$CFs?$CJ?5mission?5is?5@
CONST	SEGMENT
??_C@_0DE@LJMJJDEL@Sim?3?3ExecMission?$CI?$CFs?$CJ?5mission?5is?5@ DB 'Si'
	DB	'm::ExecMission(%s) mission is already executing.', 0aH, 00H ; `string'
CONST	ENDS
;	COMDAT ??_C@_0CN@BNNLBOCC@Sim?3?3ExecMission?$CI?$CJ?5?9?5No?5mission?5@
CONST	SEGMENT
??_C@_0CN@BNNLBOCC@Sim?3?3ExecMission?$CI?$CJ?5?9?5No?5mission?5@ DB 'Sim'
	DB	'::ExecMission() - No mission to execute.', 0aH, 00H ; `string'
CONST	ENDS
;	COMDAT ??_C@_0CH@GLANDEFM@TOTAL?5?5?5?5?5?5?5?5?5?5?5?5?5?$CF5d?5?5?$CF5d?5?5?$CF5d?5@
CONST	SEGMENT
??_C@_0CH@GLANDEFM@TOTAL?5?5?5?5?5?5?5?5?5?5?5?5?5?$CF5d?5?5?$CF5d?5?5?$CF5d?5@ DB 'T'
	DB	'OTAL             %5d  %5d  %5d  %5d', 0aH, 0aH, 00H ; `string'
CONST	ENDS
;	COMDAT ??_C@_0CO@IHAFINE@?9?9?9?9?9?9?9?9?9?9?9?9?9?9?9?9?9?9?9?9?9?9?9?9?9?9?9?9?9?9?9?9@
CONST	SEGMENT
??_C@_0CO@IHAFINE@?9?9?9?9?9?9?9?9?9?9?9?9?9?9?9?9?9?9?9?9?9?9?9?9?9?9?9?9?9?9?9?9@ DB '-'
	DB	'-------------------------------------------', 0aH, 00H ; `string'
CONST	ENDS
;	COMDAT ??_C@_0CF@KFDPBJH@?$CF?916s?5?5?$CF5d?5?5?$CF5d?5?5?$CF5d?5?5?$CF5d?5?5?$CF6d?5?5@
CONST	SEGMENT
??_C@_0CF@KFDPBJH@?$CF?916s?5?5?$CF5d?5?5?$CF5d?5?5?$CF5d?5?5?$CF5d?5?5?$CF6d?5?5@ DB '%'
	DB	'-16s  %5d  %5d  %5d  %5d  %6d  %6d', 0aH, 00H ; `string'
CONST	ENDS
;	COMDAT ??_C@_0DO@BFFMOOLB@?9?9?9?9?9?9?9?9?9?9?9?9?9?9?9?9?5?5?9?9?9?9?9?5?5?9?9?9?9?9?5?5@
CONST	SEGMENT
??_C@_0DO@BFFMOOLB@?9?9?9?9?9?9?9?9?9?9?9?9?9?9?9?9?5?5?9?9?9?9?9?5?5?9?9?9?9?9?5?5@ DB '-'
	DB	'---------------  -----  -----  -----  -----  ------  ------', 0aH
	DB	00H						; `string'
CONST	ENDS
;	COMDAT ??_C@_0DP@BCONEFGH@Name?5?5?5?5?5?5?5?5?5?5?5?5?5?5Kill1?5?5Kill2?5?5@
CONST	SEGMENT
??_C@_0DP@BCONEFGH@Name?5?5?5?5?5?5?5?5?5?5?5?5?5?5Kill1?5?5Kill2?5?5@ DB 'N'
	DB	'ame              Kill1  Kill2  Died   Colls  Points  Cmd Pts', 0aH
	DB	00H						; `string'
CONST	ENDS
;	COMDAT ??_C@_0BE@MDJAGKKE@?6?6FINAL?5SCORE?5?8?$CFs?8?6?$AA@
CONST	SEGMENT
??_C@_0BE@MDJAGKKE@?6?6FINAL?5SCORE?5?8?$CFs?8?6?$AA@ DB 0aH, 0aH, 'FINAL'
	DB	' SCORE ''%s''', 0aH, 00H			; `string'
CONST	ENDS
;	COMDAT ??_C@_0BC@CAMCFAKE@Collateral?5Damage?$AA@
CONST	SEGMENT
??_C@_0BC@CAMCFAKE@Collateral?5Damage?$AA@ DB 'Collateral Damage', 00H ; `string'
CONST	ENDS
;	COMDAT ??_C@_0CJ@PFCIGFIG@c?3?2matrix?5games?2source?2stars45?2M@
CONST	SEGMENT
??_C@_0CJ@PFCIGFIG@c?3?2matrix?5games?2source?2stars45?2M@ DB 'c:\matrix '
	DB	'games\source\stars45\Mission.h', 00H	; `string'
CONST	ENDS
;	COMDAT ??_C@_0M@EIEAPHAO@SimObserver?$AA@
CONST	SEGMENT
??_C@_0M@EIEAPHAO@SimObserver?$AA@ DB 'SimObserver', 00H ; `string'
	ORG $+18
_first_frame DB	01H
	ORG $+336
_PI	DQ	0400921fb54442d18r		; 3.14159
; Function compile flags: /Ogtp
; File c:\matrix games\source\foundationex\list.inl
;	COMDAT ?resize@?$List@VAsteroid@@@@AAEXH@Z
_TEXT	SEGMENT
?resize@?$List@VAsteroid@@@@AAEXH@Z PROC		; List<Asteroid>::resize, COMDAT
; _this$ = esi
; _newsize$ = eax

; 125  :    if (newsize > extent) {

  00000	3b 46 04	 cmp	 eax, DWORD PTR [esi+4]
  00003	7e 68		 jle	 SHORT $LN7@resize

; 126  :       extent = 16 * (newsize/16 + 1);

  00005	99		 cdq
  00006	83 e2 0f	 and	 edx, 15			; 0000000fH
  00009	03 c2		 add	 eax, edx
  0000b	c1 f8 04	 sar	 eax, 4
  0000e	40		 inc	 eax
  0000f	c1 e0 04	 shl	 eax, 4

; 127  : 
; 128  : #ifdef MEM_DEBUG
; 129  :       T** v = new(__FILE__,__LINE__) PTR[extent];
; 130  : #else
; 131  :       T** v = new PTR[extent];

  00012	33 c9		 xor	 ecx, ecx
  00014	89 46 04	 mov	 DWORD PTR [esi+4], eax
  00017	ba 04 00 00 00	 mov	 edx, 4
  0001c	f7 e2		 mul	 edx
  0001e	0f 90 c1	 seto	 cl
  00021	57		 push	 edi
  00022	f7 d9		 neg	 ecx
  00024	0b c8		 or	 ecx, eax
  00026	51		 push	 ecx
  00027	e8 00 00 00 00	 call	 ??_U@YAPAXI@Z		; operator new[]
  0002c	8b f8		 mov	 edi, eax

; 132  : #endif
; 133  : 	  int i;
; 134  :       for (i = 0; i < items; i++)

  0002e	33 c0		 xor	 eax, eax
  00030	83 c4 04	 add	 esp, 4
  00033	39 06		 cmp	 DWORD PTR [esi], eax
  00035	7e 0e		 jle	 SHORT $LN4@resize
$LL6@resize:

; 135  :          v[i] = array[i];

  00037	8b 4e 08	 mov	 ecx, DWORD PTR [esi+8]
  0003a	8b 14 81	 mov	 edx, DWORD PTR [ecx+eax*4]
  0003d	89 14 87	 mov	 DWORD PTR [edi+eax*4], edx
  00040	40		 inc	 eax
  00041	3b 06		 cmp	 eax, DWORD PTR [esi]
  00043	7c f2		 jl	 SHORT $LL6@resize
$LN4@resize:

; 136  : 
; 137  :       for (; i < extent; i++)

  00045	3b 46 04	 cmp	 eax, DWORD PTR [esi+4]
  00048	7d 13		 jge	 SHORT $LN1@resize
  0004a	8d 9b 00 00 00
	00		 npad	 6
$LL3@resize:

; 138  :          v[i] = 0;

  00050	c7 04 87 00 00
	00 00		 mov	 DWORD PTR [edi+eax*4], 0
  00057	40		 inc	 eax
  00058	3b 46 04	 cmp	 eax, DWORD PTR [esi+4]
  0005b	7c f3		 jl	 SHORT $LL3@resize
$LN1@resize:

; 139  : 
; 140  :       delete [] array;   

  0005d	8b 46 08	 mov	 eax, DWORD PTR [esi+8]
  00060	50		 push	 eax
  00061	e8 00 00 00 00	 call	 ??_V@YAXPAX@Z		; operator delete[]
  00066	83 c4 04	 add	 esp, 4

; 141  :       array = v;

  00069	89 7e 08	 mov	 DWORD PTR [esi+8], edi
  0006c	5f		 pop	 edi
$LN7@resize:

; 142  :    }
; 143  : }

  0006d	c3		 ret	 0
?resize@?$List@VAsteroid@@@@AAEXH@Z ENDP		; List<Asteroid>::resize
; Function compile flags: /Ogtp
_TEXT	ENDS
;	COMDAT ?resize@?$List@VDebris@@@@AAEXH@Z
_TEXT	SEGMENT
?resize@?$List@VDebris@@@@AAEXH@Z PROC			; List<Debris>::resize, COMDAT
; _this$ = esi
; _newsize$ = eax

; 125  :    if (newsize > extent) {

  00000	3b 46 04	 cmp	 eax, DWORD PTR [esi+4]
  00003	7e 68		 jle	 SHORT $LN7@resize@2

; 126  :       extent = 16 * (newsize/16 + 1);

  00005	99		 cdq
  00006	83 e2 0f	 and	 edx, 15			; 0000000fH
  00009	03 c2		 add	 eax, edx
  0000b	c1 f8 04	 sar	 eax, 4
  0000e	40		 inc	 eax
  0000f	c1 e0 04	 shl	 eax, 4

; 127  : 
; 128  : #ifdef MEM_DEBUG
; 129  :       T** v = new(__FILE__,__LINE__) PTR[extent];
; 130  : #else
; 131  :       T** v = new PTR[extent];

  00012	33 c9		 xor	 ecx, ecx
  00014	89 46 04	 mov	 DWORD PTR [esi+4], eax
  00017	ba 04 00 00 00	 mov	 edx, 4
  0001c	f7 e2		 mul	 edx
  0001e	0f 90 c1	 seto	 cl
  00021	57		 push	 edi
  00022	f7 d9		 neg	 ecx
  00024	0b c8		 or	 ecx, eax
  00026	51		 push	 ecx
  00027	e8 00 00 00 00	 call	 ??_U@YAPAXI@Z		; operator new[]
  0002c	8b f8		 mov	 edi, eax

; 132  : #endif
; 133  : 	  int i;
; 134  :       for (i = 0; i < items; i++)

  0002e	33 c0		 xor	 eax, eax
  00030	83 c4 04	 add	 esp, 4
  00033	39 06		 cmp	 DWORD PTR [esi], eax
  00035	7e 0e		 jle	 SHORT $LN4@resize@2
$LL6@resize@2:

; 135  :          v[i] = array[i];

  00037	8b 4e 08	 mov	 ecx, DWORD PTR [esi+8]
  0003a	8b 14 81	 mov	 edx, DWORD PTR [ecx+eax*4]
  0003d	89 14 87	 mov	 DWORD PTR [edi+eax*4], edx
  00040	40		 inc	 eax
  00041	3b 06		 cmp	 eax, DWORD PTR [esi]
  00043	7c f2		 jl	 SHORT $LL6@resize@2
$LN4@resize@2:

; 136  : 
; 137  :       for (; i < extent; i++)

  00045	3b 46 04	 cmp	 eax, DWORD PTR [esi+4]
  00048	7d 13		 jge	 SHORT $LN1@resize@2
  0004a	8d 9b 00 00 00
	00		 npad	 6
$LL3@resize@2:

; 138  :          v[i] = 0;

  00050	c7 04 87 00 00
	00 00		 mov	 DWORD PTR [edi+eax*4], 0
  00057	40		 inc	 eax
  00058	3b 46 04	 cmp	 eax, DWORD PTR [esi+4]
  0005b	7c f3		 jl	 SHORT $LL3@resize@2
$LN1@resize@2:

; 139  : 
; 140  :       delete [] array;   

  0005d	8b 46 08	 mov	 eax, DWORD PTR [esi+8]
  00060	50		 push	 eax
  00061	e8 00 00 00 00	 call	 ??_V@YAXPAX@Z		; operator delete[]
  00066	83 c4 04	 add	 esp, 4

; 141  :       array = v;

  00069	89 7e 08	 mov	 DWORD PTR [esi+8], edi
  0006c	5f		 pop	 edi
$LN7@resize@2:

; 142  :    }
; 143  : }

  0006d	c3		 ret	 0
?resize@?$List@VDebris@@@@AAEXH@Z ENDP			; List<Debris>::resize
; Function compile flags: /Ogtp
_TEXT	ENDS
;	COMDAT ?resize@?$List@VExplosion@@@@AAEXH@Z
_TEXT	SEGMENT
?resize@?$List@VExplosion@@@@AAEXH@Z PROC		; List<Explosion>::resize, COMDAT
; _this$ = esi
; _newsize$ = eax

; 125  :    if (newsize > extent) {

  00000	3b 46 04	 cmp	 eax, DWORD PTR [esi+4]
  00003	7e 68		 jle	 SHORT $LN7@resize@3

; 126  :       extent = 16 * (newsize/16 + 1);

  00005	99		 cdq
  00006	83 e2 0f	 and	 edx, 15			; 0000000fH
  00009	03 c2		 add	 eax, edx
  0000b	c1 f8 04	 sar	 eax, 4
  0000e	40		 inc	 eax
  0000f	c1 e0 04	 shl	 eax, 4

; 127  : 
; 128  : #ifdef MEM_DEBUG
; 129  :       T** v = new(__FILE__,__LINE__) PTR[extent];
; 130  : #else
; 131  :       T** v = new PTR[extent];

  00012	33 c9		 xor	 ecx, ecx
  00014	89 46 04	 mov	 DWORD PTR [esi+4], eax
  00017	ba 04 00 00 00	 mov	 edx, 4
  0001c	f7 e2		 mul	 edx
  0001e	0f 90 c1	 seto	 cl
  00021	57		 push	 edi
  00022	f7 d9		 neg	 ecx
  00024	0b c8		 or	 ecx, eax
  00026	51		 push	 ecx
  00027	e8 00 00 00 00	 call	 ??_U@YAPAXI@Z		; operator new[]
  0002c	8b f8		 mov	 edi, eax

; 132  : #endif
; 133  : 	  int i;
; 134  :       for (i = 0; i < items; i++)

  0002e	33 c0		 xor	 eax, eax
  00030	83 c4 04	 add	 esp, 4
  00033	39 06		 cmp	 DWORD PTR [esi], eax
  00035	7e 0e		 jle	 SHORT $LN4@resize@3
$LL6@resize@3:

; 135  :          v[i] = array[i];

  00037	8b 4e 08	 mov	 ecx, DWORD PTR [esi+8]
  0003a	8b 14 81	 mov	 edx, DWORD PTR [ecx+eax*4]
  0003d	89 14 87	 mov	 DWORD PTR [edi+eax*4], edx
  00040	40		 inc	 eax
  00041	3b 06		 cmp	 eax, DWORD PTR [esi]
  00043	7c f2		 jl	 SHORT $LL6@resize@3
$LN4@resize@3:

; 136  : 
; 137  :       for (; i < extent; i++)

  00045	3b 46 04	 cmp	 eax, DWORD PTR [esi+4]
  00048	7d 13		 jge	 SHORT $LN1@resize@3
  0004a	8d 9b 00 00 00
	00		 npad	 6
$LL3@resize@3:

; 138  :          v[i] = 0;

  00050	c7 04 87 00 00
	00 00		 mov	 DWORD PTR [edi+eax*4], 0
  00057	40		 inc	 eax
  00058	3b 46 04	 cmp	 eax, DWORD PTR [esi+4]
  0005b	7c f3		 jl	 SHORT $LL3@resize@3
$LN1@resize@3:

; 139  : 
; 140  :       delete [] array;   

  0005d	8b 46 08	 mov	 eax, DWORD PTR [esi+8]
  00060	50		 push	 eax
  00061	e8 00 00 00 00	 call	 ??_V@YAXPAX@Z		; operator delete[]
  00066	83 c4 04	 add	 esp, 4

; 141  :       array = v;

  00069	89 7e 08	 mov	 DWORD PTR [esi+8], edi
  0006c	5f		 pop	 edi
$LN7@resize@3:

; 142  :    }
; 143  : }

  0006d	c3		 ret	 0
?resize@?$List@VExplosion@@@@AAEXH@Z ENDP		; List<Explosion>::resize
; Function compile flags: /Ogtp
_TEXT	ENDS
;	COMDAT ?resize@?$List@VDrone@@@@AAEXH@Z
_TEXT	SEGMENT
?resize@?$List@VDrone@@@@AAEXH@Z PROC			; List<Drone>::resize, COMDAT
; _this$ = esi
; _newsize$ = eax

; 125  :    if (newsize > extent) {

  00000	3b 46 04	 cmp	 eax, DWORD PTR [esi+4]
  00003	7e 68		 jle	 SHORT $LN7@resize@4

; 126  :       extent = 16 * (newsize/16 + 1);

  00005	99		 cdq
  00006	83 e2 0f	 and	 edx, 15			; 0000000fH
  00009	03 c2		 add	 eax, edx
  0000b	c1 f8 04	 sar	 eax, 4
  0000e	40		 inc	 eax
  0000f	c1 e0 04	 shl	 eax, 4

; 127  : 
; 128  : #ifdef MEM_DEBUG
; 129  :       T** v = new(__FILE__,__LINE__) PTR[extent];
; 130  : #else
; 131  :       T** v = new PTR[extent];

  00012	33 c9		 xor	 ecx, ecx
  00014	89 46 04	 mov	 DWORD PTR [esi+4], eax
  00017	ba 04 00 00 00	 mov	 edx, 4
  0001c	f7 e2		 mul	 edx
  0001e	0f 90 c1	 seto	 cl
  00021	57		 push	 edi
  00022	f7 d9		 neg	 ecx
  00024	0b c8		 or	 ecx, eax
  00026	51		 push	 ecx
  00027	e8 00 00 00 00	 call	 ??_U@YAPAXI@Z		; operator new[]
  0002c	8b f8		 mov	 edi, eax

; 132  : #endif
; 133  : 	  int i;
; 134  :       for (i = 0; i < items; i++)

  0002e	33 c0		 xor	 eax, eax
  00030	83 c4 04	 add	 esp, 4
  00033	39 06		 cmp	 DWORD PTR [esi], eax
  00035	7e 0e		 jle	 SHORT $LN4@resize@4
$LL6@resize@4:

; 135  :          v[i] = array[i];

  00037	8b 4e 08	 mov	 ecx, DWORD PTR [esi+8]
  0003a	8b 14 81	 mov	 edx, DWORD PTR [ecx+eax*4]
  0003d	89 14 87	 mov	 DWORD PTR [edi+eax*4], edx
  00040	40		 inc	 eax
  00041	3b 06		 cmp	 eax, DWORD PTR [esi]
  00043	7c f2		 jl	 SHORT $LL6@resize@4
$LN4@resize@4:

; 136  : 
; 137  :       for (; i < extent; i++)

  00045	3b 46 04	 cmp	 eax, DWORD PTR [esi+4]
  00048	7d 13		 jge	 SHORT $LN1@resize@4
  0004a	8d 9b 00 00 00
	00		 npad	 6
$LL3@resize@4:

; 138  :          v[i] = 0;

  00050	c7 04 87 00 00
	00 00		 mov	 DWORD PTR [edi+eax*4], 0
  00057	40		 inc	 eax
  00058	3b 46 04	 cmp	 eax, DWORD PTR [esi+4]
  0005b	7c f3		 jl	 SHORT $LL3@resize@4
$LN1@resize@4:

; 139  : 
; 140  :       delete [] array;   

  0005d	8b 46 08	 mov	 eax, DWORD PTR [esi+8]
  00060	50		 push	 eax
  00061	e8 00 00 00 00	 call	 ??_V@YAXPAX@Z		; operator delete[]
  00066	83 c4 04	 add	 esp, 4

; 141  :       array = v;

  00069	89 7e 08	 mov	 DWORD PTR [esi+8], edi
  0006c	5f		 pop	 edi
$LN7@resize@4:

; 142  :    }
; 143  : }

  0006d	c3		 ret	 0
?resize@?$List@VDrone@@@@AAEXH@Z ENDP			; List<Drone>::resize
; Function compile flags: /Ogtp
_TEXT	ENDS
;	COMDAT ?resize@?$List@VSimSplash@@@@AAEXH@Z
_TEXT	SEGMENT
?resize@?$List@VSimSplash@@@@AAEXH@Z PROC		; List<SimSplash>::resize, COMDAT
; _this$ = esi
; _newsize$ = eax

; 125  :    if (newsize > extent) {

  00000	3b 46 04	 cmp	 eax, DWORD PTR [esi+4]
  00003	7e 68		 jle	 SHORT $LN7@resize@5

; 126  :       extent = 16 * (newsize/16 + 1);

  00005	99		 cdq
  00006	83 e2 0f	 and	 edx, 15			; 0000000fH
  00009	03 c2		 add	 eax, edx
  0000b	c1 f8 04	 sar	 eax, 4
  0000e	40		 inc	 eax
  0000f	c1 e0 04	 shl	 eax, 4

; 127  : 
; 128  : #ifdef MEM_DEBUG
; 129  :       T** v = new(__FILE__,__LINE__) PTR[extent];
; 130  : #else
; 131  :       T** v = new PTR[extent];

  00012	33 c9		 xor	 ecx, ecx
  00014	89 46 04	 mov	 DWORD PTR [esi+4], eax
  00017	ba 04 00 00 00	 mov	 edx, 4
  0001c	f7 e2		 mul	 edx
  0001e	0f 90 c1	 seto	 cl
  00021	57		 push	 edi
  00022	f7 d9		 neg	 ecx
  00024	0b c8		 or	 ecx, eax
  00026	51		 push	 ecx
  00027	e8 00 00 00 00	 call	 ??_U@YAPAXI@Z		; operator new[]
  0002c	8b f8		 mov	 edi, eax

; 132  : #endif
; 133  : 	  int i;
; 134  :       for (i = 0; i < items; i++)

  0002e	33 c0		 xor	 eax, eax
  00030	83 c4 04	 add	 esp, 4
  00033	39 06		 cmp	 DWORD PTR [esi], eax
  00035	7e 0e		 jle	 SHORT $LN4@resize@5
$LL6@resize@5:

; 135  :          v[i] = array[i];

  00037	8b 4e 08	 mov	 ecx, DWORD PTR [esi+8]
  0003a	8b 14 81	 mov	 edx, DWORD PTR [ecx+eax*4]
  0003d	89 14 87	 mov	 DWORD PTR [edi+eax*4], edx
  00040	40		 inc	 eax
  00041	3b 06		 cmp	 eax, DWORD PTR [esi]
  00043	7c f2		 jl	 SHORT $LL6@resize@5
$LN4@resize@5:

; 136  : 
; 137  :       for (; i < extent; i++)

  00045	3b 46 04	 cmp	 eax, DWORD PTR [esi+4]
  00048	7d 13		 jge	 SHORT $LN1@resize@5
  0004a	8d 9b 00 00 00
	00		 npad	 6
$LL3@resize@5:

; 138  :          v[i] = 0;

  00050	c7 04 87 00 00
	00 00		 mov	 DWORD PTR [edi+eax*4], 0
  00057	40		 inc	 eax
  00058	3b 46 04	 cmp	 eax, DWORD PTR [esi+4]
  0005b	7c f3		 jl	 SHORT $LL3@resize@5
$LN1@resize@5:

; 139  : 
; 140  :       delete [] array;   

  0005d	8b 46 08	 mov	 eax, DWORD PTR [esi+8]
  00060	50		 push	 eax
  00061	e8 00 00 00 00	 call	 ??_V@YAXPAX@Z		; operator delete[]
  00066	83 c4 04	 add	 esp, 4

; 141  :       array = v;

  00069	89 7e 08	 mov	 DWORD PTR [esi+8], edi
  0006c	5f		 pop	 edi
$LN7@resize@5:

; 142  :    }
; 143  : }

  0006d	c3		 ret	 0
?resize@?$List@VSimSplash@@@@AAEXH@Z ENDP		; List<SimSplash>::resize
; Function compile flags: /Ogtp
_TEXT	ENDS
;	COMDAT ?resize@?$List@VSimHyper@@@@AAEXH@Z
_TEXT	SEGMENT
?resize@?$List@VSimHyper@@@@AAEXH@Z PROC		; List<SimHyper>::resize, COMDAT
; _this$ = esi
; _newsize$ = eax

; 125  :    if (newsize > extent) {

  00000	3b 46 04	 cmp	 eax, DWORD PTR [esi+4]
  00003	7e 68		 jle	 SHORT $LN7@resize@6

; 126  :       extent = 16 * (newsize/16 + 1);

  00005	99		 cdq
  00006	83 e2 0f	 and	 edx, 15			; 0000000fH
  00009	03 c2		 add	 eax, edx
  0000b	c1 f8 04	 sar	 eax, 4
  0000e	40		 inc	 eax
  0000f	c1 e0 04	 shl	 eax, 4

; 127  : 
; 128  : #ifdef MEM_DEBUG
; 129  :       T** v = new(__FILE__,__LINE__) PTR[extent];
; 130  : #else
; 131  :       T** v = new PTR[extent];

  00012	33 c9		 xor	 ecx, ecx
  00014	89 46 04	 mov	 DWORD PTR [esi+4], eax
  00017	ba 04 00 00 00	 mov	 edx, 4
  0001c	f7 e2		 mul	 edx
  0001e	0f 90 c1	 seto	 cl
  00021	57		 push	 edi
  00022	f7 d9		 neg	 ecx
  00024	0b c8		 or	 ecx, eax
  00026	51		 push	 ecx
  00027	e8 00 00 00 00	 call	 ??_U@YAPAXI@Z		; operator new[]
  0002c	8b f8		 mov	 edi, eax

; 132  : #endif
; 133  : 	  int i;
; 134  :       for (i = 0; i < items; i++)

  0002e	33 c0		 xor	 eax, eax
  00030	83 c4 04	 add	 esp, 4
  00033	39 06		 cmp	 DWORD PTR [esi], eax
  00035	7e 0e		 jle	 SHORT $LN4@resize@6
$LL6@resize@6:

; 135  :          v[i] = array[i];

  00037	8b 4e 08	 mov	 ecx, DWORD PTR [esi+8]
  0003a	8b 14 81	 mov	 edx, DWORD PTR [ecx+eax*4]
  0003d	89 14 87	 mov	 DWORD PTR [edi+eax*4], edx
  00040	40		 inc	 eax
  00041	3b 06		 cmp	 eax, DWORD PTR [esi]
  00043	7c f2		 jl	 SHORT $LL6@resize@6
$LN4@resize@6:

; 136  : 
; 137  :       for (; i < extent; i++)

  00045	3b 46 04	 cmp	 eax, DWORD PTR [esi+4]
  00048	7d 13		 jge	 SHORT $LN1@resize@6
  0004a	8d 9b 00 00 00
	00		 npad	 6
$LL3@resize@6:

; 138  :          v[i] = 0;

  00050	c7 04 87 00 00
	00 00		 mov	 DWORD PTR [edi+eax*4], 0
  00057	40		 inc	 eax
  00058	3b 46 04	 cmp	 eax, DWORD PTR [esi+4]
  0005b	7c f3		 jl	 SHORT $LL3@resize@6
$LN1@resize@6:

; 139  : 
; 140  :       delete [] array;   

  0005d	8b 46 08	 mov	 eax, DWORD PTR [esi+8]
  00060	50		 push	 eax
  00061	e8 00 00 00 00	 call	 ??_V@YAXPAX@Z		; operator delete[]
  00066	83 c4 04	 add	 esp, 4

; 141  :       array = v;

  00069	89 7e 08	 mov	 DWORD PTR [esi+8], edi
  0006c	5f		 pop	 edi
$LN7@resize@6:

; 142  :    }
; 143  : }

  0006d	c3		 ret	 0
?resize@?$List@VSimHyper@@@@AAEXH@Z ENDP		; List<SimHyper>::resize
; Function compile flags: /Ogtp
_TEXT	ENDS
;	COMDAT ??1SimSplash@@QAE@XZ
_TEXT	SEGMENT
??1SimSplash@@QAE@XZ PROC				; SimSplash::~SimSplash, COMDAT
; _this$ = ecx
  00000	e9 00 00 00 00	 jmp	 ??1Text@@QAE@XZ		; Text::~Text
??1SimSplash@@QAE@XZ ENDP				; SimSplash::~SimSplash
; Function compile flags: /Ogtp
_TEXT	ENDS
;	COMDAT ??_GSimSplash@@QAEPAXI@Z
_TEXT	SEGMENT
??_GSimSplash@@QAEPAXI@Z PROC				; SimSplash::`scalar deleting destructor', COMDAT
; _this$ = esi
  00000	8b ce		 mov	 ecx, esi
  00002	e8 00 00 00 00	 call	 ??1Text@@QAE@XZ		; Text::~Text
  00007	56		 push	 esi
  00008	e8 00 00 00 00	 call	 ??3@YAXPAX@Z		; operator delete
  0000d	83 c4 04	 add	 esp, 4
  00010	8b c6		 mov	 eax, esi
  00012	c3		 ret	 0
??_GSimSplash@@QAEPAXI@Z ENDP				; SimSplash::`scalar deleting destructor'
; Function compile flags: /Ogtp
_TEXT	ENDS
;	COMDAT ?value@?$ListIter@VExplosion@@@@QAEPAVExplosion@@XZ
_TEXT	SEGMENT
?value@?$ListIter@VExplosion@@@@QAEPAVExplosion@@XZ PROC ; ListIter<Explosion>::value, COMDAT
; _this$ = eax

; 382  :    if (list && step >= 0 && step < list->items)

  00000	8b 08		 mov	 ecx, DWORD PTR [eax]
  00002	85 c9		 test	 ecx, ecx
  00004	74 12		 je	 SHORT $LN1@value
  00006	8b 40 04	 mov	 eax, DWORD PTR [eax+4]
  00009	85 c0		 test	 eax, eax
  0000b	78 0b		 js	 SHORT $LN1@value
  0000d	3b 01		 cmp	 eax, DWORD PTR [ecx]
  0000f	7d 07		 jge	 SHORT $LN1@value

; 383  :       return list->array[step];

  00011	8b 49 08	 mov	 ecx, DWORD PTR [ecx+8]
  00014	8b 04 81	 mov	 eax, DWORD PTR [ecx+eax*4]

; 386  : }

  00017	c3		 ret	 0
$LN1@value:

; 384  : 
; 385  :    return 0;

  00018	33 c0		 xor	 eax, eax

; 386  : }

  0001a	c3		 ret	 0
?value@?$ListIter@VExplosion@@@@QAEPAVExplosion@@XZ ENDP ; ListIter<Explosion>::value
; Function compile flags: /Ogtp
_TEXT	ENDS
;	COMDAT ?next@?$ListIter@VExplosion@@@@QAEPAVExplosion@@XZ
_TEXT	SEGMENT
?next@?$ListIter@VExplosion@@@@QAEPAVExplosion@@XZ PROC	; ListIter<Explosion>::next, COMDAT
; _this$ = edx

; 404  :    if (list && step >= -1 && step < list->items-1)

  00000	8b 0a		 mov	 ecx, DWORD PTR [edx]
  00002	85 c9		 test	 ecx, ecx
  00004	74 1c		 je	 SHORT $LN1@next
  00006	8b 42 04	 mov	 eax, DWORD PTR [edx+4]
  00009	83 f8 ff	 cmp	 eax, -1
  0000c	7c 14		 jl	 SHORT $LN1@next
  0000e	56		 push	 esi
  0000f	8b 31		 mov	 esi, DWORD PTR [ecx]
  00011	4e		 dec	 esi
  00012	3b c6		 cmp	 eax, esi
  00014	5e		 pop	 esi
  00015	7d 0b		 jge	 SHORT $LN1@next

; 405  :       return list->array[++step];

  00017	40		 inc	 eax
  00018	89 42 04	 mov	 DWORD PTR [edx+4], eax
  0001b	8b 49 08	 mov	 ecx, DWORD PTR [ecx+8]
  0001e	8b 04 81	 mov	 eax, DWORD PTR [ecx+eax*4]

; 408  : }

  00021	c3		 ret	 0
$LN1@next:

; 406  : 
; 407  :    return 0;

  00022	33 c0		 xor	 eax, eax

; 408  : }

  00024	c3		 ret	 0
?next@?$ListIter@VExplosion@@@@QAEPAVExplosion@@XZ ENDP	; ListIter<Explosion>::next
; Function compile flags: /Ogtp
_TEXT	ENDS
;	COMDAT ?value@?$ListIter@VSimSplash@@@@QAEPAVSimSplash@@XZ
_TEXT	SEGMENT
?value@?$ListIter@VSimSplash@@@@QAEPAVSimSplash@@XZ PROC ; ListIter<SimSplash>::value, COMDAT
; _this$ = eax

; 382  :    if (list && step >= 0 && step < list->items)

  00000	8b 08		 mov	 ecx, DWORD PTR [eax]
  00002	85 c9		 test	 ecx, ecx
  00004	74 12		 je	 SHORT $LN1@value@2
  00006	8b 40 04	 mov	 eax, DWORD PTR [eax+4]
  00009	85 c0		 test	 eax, eax
  0000b	78 0b		 js	 SHORT $LN1@value@2
  0000d	3b 01		 cmp	 eax, DWORD PTR [ecx]
  0000f	7d 07		 jge	 SHORT $LN1@value@2

; 383  :       return list->array[step];

  00011	8b 49 08	 mov	 ecx, DWORD PTR [ecx+8]
  00014	8b 04 81	 mov	 eax, DWORD PTR [ecx+eax*4]

; 386  : }

  00017	c3		 ret	 0
$LN1@value@2:

; 384  : 
; 385  :    return 0;

  00018	33 c0		 xor	 eax, eax

; 386  : }

  0001a	c3		 ret	 0
?value@?$ListIter@VSimSplash@@@@QAEPAVSimSplash@@XZ ENDP ; ListIter<SimSplash>::value
; Function compile flags: /Ogtp
_TEXT	ENDS
;	COMDAT ?next@?$ListIter@VSimSplash@@@@QAEPAVSimSplash@@XZ
_TEXT	SEGMENT
?next@?$ListIter@VSimSplash@@@@QAEPAVSimSplash@@XZ PROC	; ListIter<SimSplash>::next, COMDAT
; _this$ = edx

; 404  :    if (list && step >= -1 && step < list->items-1)

  00000	8b 0a		 mov	 ecx, DWORD PTR [edx]
  00002	85 c9		 test	 ecx, ecx
  00004	74 1c		 je	 SHORT $LN1@next@2
  00006	8b 42 04	 mov	 eax, DWORD PTR [edx+4]
  00009	83 f8 ff	 cmp	 eax, -1
  0000c	7c 14		 jl	 SHORT $LN1@next@2
  0000e	56		 push	 esi
  0000f	8b 31		 mov	 esi, DWORD PTR [ecx]
  00011	4e		 dec	 esi
  00012	3b c6		 cmp	 eax, esi
  00014	5e		 pop	 esi
  00015	7d 0b		 jge	 SHORT $LN1@next@2

; 405  :       return list->array[++step];

  00017	40		 inc	 eax
  00018	89 42 04	 mov	 DWORD PTR [edx+4], eax
  0001b	8b 49 08	 mov	 ecx, DWORD PTR [ecx+8]
  0001e	8b 04 81	 mov	 eax, DWORD PTR [ecx+eax*4]

; 408  : }

  00021	c3		 ret	 0
$LN1@next@2:

; 406  : 
; 407  :    return 0;

  00022	33 c0		 xor	 eax, eax

; 408  : }

  00024	c3		 ret	 0
?next@?$ListIter@VSimSplash@@@@QAEPAVSimSplash@@XZ ENDP	; ListIter<SimSplash>::next
; Function compile flags: /Ogtp
_TEXT	ENDS
;	COMDAT ?value@?$ListIter@VSimHyper@@@@QAEPAVSimHyper@@XZ
_TEXT	SEGMENT
?value@?$ListIter@VSimHyper@@@@QAEPAVSimHyper@@XZ PROC	; ListIter<SimHyper>::value, COMDAT
; _this$ = eax

; 382  :    if (list && step >= 0 && step < list->items)

  00000	8b 08		 mov	 ecx, DWORD PTR [eax]
  00002	85 c9		 test	 ecx, ecx
  00004	74 12		 je	 SHORT $LN1@value@3
  00006	8b 40 04	 mov	 eax, DWORD PTR [eax+4]
  00009	85 c0		 test	 eax, eax
  0000b	78 0b		 js	 SHORT $LN1@value@3
  0000d	3b 01		 cmp	 eax, DWORD PTR [ecx]
  0000f	7d 07		 jge	 SHORT $LN1@value@3

; 383  :       return list->array[step];

  00011	8b 49 08	 mov	 ecx, DWORD PTR [ecx+8]
  00014	8b 04 81	 mov	 eax, DWORD PTR [ecx+eax*4]

; 386  : }

  00017	c3		 ret	 0
$LN1@value@3:

; 384  : 
; 385  :    return 0;

  00018	33 c0		 xor	 eax, eax

; 386  : }

  0001a	c3		 ret	 0
?value@?$ListIter@VSimHyper@@@@QAEPAVSimHyper@@XZ ENDP	; ListIter<SimHyper>::value
; Function compile flags: /Ogtp
_TEXT	ENDS
;	COMDAT ?next@?$ListIter@VSimHyper@@@@QAEPAVSimHyper@@XZ
_TEXT	SEGMENT
?next@?$ListIter@VSimHyper@@@@QAEPAVSimHyper@@XZ PROC	; ListIter<SimHyper>::next, COMDAT
; _this$ = edx

; 404  :    if (list && step >= -1 && step < list->items-1)

  00000	8b 0a		 mov	 ecx, DWORD PTR [edx]
  00002	85 c9		 test	 ecx, ecx
  00004	74 1c		 je	 SHORT $LN1@next@3
  00006	8b 42 04	 mov	 eax, DWORD PTR [edx+4]
  00009	83 f8 ff	 cmp	 eax, -1
  0000c	7c 14		 jl	 SHORT $LN1@next@3
  0000e	56		 push	 esi
  0000f	8b 31		 mov	 esi, DWORD PTR [ecx]
  00011	4e		 dec	 esi
  00012	3b c6		 cmp	 eax, esi
  00014	5e		 pop	 esi
  00015	7d 0b		 jge	 SHORT $LN1@next@3

; 405  :       return list->array[++step];

  00017	40		 inc	 eax
  00018	89 42 04	 mov	 DWORD PTR [edx+4], eax
  0001b	8b 49 08	 mov	 ecx, DWORD PTR [ecx+8]
  0001e	8b 04 81	 mov	 eax, DWORD PTR [ecx+eax*4]

; 408  : }

  00021	c3		 ret	 0
$LN1@next@3:

; 406  : 
; 407  :    return 0;

  00022	33 c0		 xor	 eax, eax

; 408  : }

  00024	c3		 ret	 0
?next@?$ListIter@VSimHyper@@@@QAEPAVSimHyper@@XZ ENDP	; ListIter<SimHyper>::next
; Function compile flags: /Ogtp
_TEXT	ENDS
;	COMDAT ?value@?$ListIter@VModel@@@@QAEPAVModel@@XZ
_TEXT	SEGMENT
?value@?$ListIter@VModel@@@@QAEPAVModel@@XZ PROC	; ListIter<Model>::value, COMDAT
; _this$ = eax

; 382  :    if (list && step >= 0 && step < list->items)

  00000	8b 08		 mov	 ecx, DWORD PTR [eax]
  00002	85 c9		 test	 ecx, ecx
  00004	74 12		 je	 SHORT $LN1@value@4
  00006	8b 40 04	 mov	 eax, DWORD PTR [eax+4]
  00009	85 c0		 test	 eax, eax
  0000b	78 0b		 js	 SHORT $LN1@value@4
  0000d	3b 01		 cmp	 eax, DWORD PTR [ecx]
  0000f	7d 07		 jge	 SHORT $LN1@value@4

; 383  :       return list->array[step];

  00011	8b 49 08	 mov	 ecx, DWORD PTR [ecx+8]
  00014	8b 04 81	 mov	 eax, DWORD PTR [ecx+eax*4]

; 386  : }

  00017	c3		 ret	 0
$LN1@value@4:

; 384  : 
; 385  :    return 0;

  00018	33 c0		 xor	 eax, eax

; 386  : }

  0001a	c3		 ret	 0
?value@?$ListIter@VModel@@@@QAEPAVModel@@XZ ENDP	; ListIter<Model>::value
; Function compile flags: /Ogtp
_TEXT	ENDS
;	COMDAT ?next@?$ListIter@VModel@@@@QAEPAVModel@@XZ
_TEXT	SEGMENT
?next@?$ListIter@VModel@@@@QAEPAVModel@@XZ PROC		; ListIter<Model>::next, COMDAT
; _this$ = ecx

; 404  :    if (list && step >= -1 && step < list->items-1)

  00000	8b 11		 mov	 edx, DWORD PTR [ecx]
  00002	85 d2		 test	 edx, edx
  00004	74 1c		 je	 SHORT $LN1@next@4
  00006	8b 41 04	 mov	 eax, DWORD PTR [ecx+4]
  00009	83 f8 ff	 cmp	 eax, -1
  0000c	7c 14		 jl	 SHORT $LN1@next@4
  0000e	56		 push	 esi
  0000f	8b 32		 mov	 esi, DWORD PTR [edx]
  00011	4e		 dec	 esi
  00012	3b c6		 cmp	 eax, esi
  00014	5e		 pop	 esi
  00015	7d 0b		 jge	 SHORT $LN1@next@4

; 405  :       return list->array[++step];

  00017	40		 inc	 eax
  00018	89 41 04	 mov	 DWORD PTR [ecx+4], eax
  0001b	8b 4a 08	 mov	 ecx, DWORD PTR [edx+8]
  0001e	8b 04 81	 mov	 eax, DWORD PTR [ecx+eax*4]

; 408  : }

  00021	c3		 ret	 0
$LN1@next@4:

; 406  : 
; 407  :    return 0;

  00022	33 c0		 xor	 eax, eax

; 408  : }

  00024	c3		 ret	 0
?next@?$ListIter@VModel@@@@QAEPAVModel@@XZ ENDP		; ListIter<Model>::next
; Function compile flags: /Ogtp
_TEXT	ENDS
;	COMDAT ?destroy@?$List@VAsteroid@@@@QAEXXZ
_TEXT	SEGMENT
?destroy@?$List@VAsteroid@@@@QAEXXZ PROC		; List<Asteroid>::destroy, COMDAT
; _this$ = esi

; 47   :    if (items) {

  00000	83 3e 00	 cmp	 DWORD PTR [esi], 0
  00003	74 47		 je	 SHORT $LN4@destroy

; 48   :       items = 0;  // prevent dangerous re-entrancy
; 49   : 
; 50   :       for (int i = 0; i < extent; i++)

  00005	57		 push	 edi
  00006	33 ff		 xor	 edi, edi
  00008	c7 06 00 00 00
	00		 mov	 DWORD PTR [esi], 0
  0000e	39 7e 04	 cmp	 DWORD PTR [esi+4], edi
  00011	7e 18		 jle	 SHORT $LN1@destroy
$LL3@destroy:

; 51   :          delete array[i];

  00013	8b 46 08	 mov	 eax, DWORD PTR [esi+8]
  00016	8b 0c b8	 mov	 ecx, DWORD PTR [eax+edi*4]
  00019	85 c9		 test	 ecx, ecx
  0001b	74 08		 je	 SHORT $LN2@destroy
  0001d	8b 11		 mov	 edx, DWORD PTR [ecx]
  0001f	8b 02		 mov	 eax, DWORD PTR [edx]
  00021	6a 01		 push	 1
  00023	ff d0		 call	 eax
$LN2@destroy:

; 48   :       items = 0;  // prevent dangerous re-entrancy
; 49   : 
; 50   :       for (int i = 0; i < extent; i++)

  00025	47		 inc	 edi
  00026	3b 7e 04	 cmp	 edi, DWORD PTR [esi+4]
  00029	7c e8		 jl	 SHORT $LL3@destroy
$LN1@destroy:

; 52   : 
; 53   :       delete [] array;

  0002b	8b 4e 08	 mov	 ecx, DWORD PTR [esi+8]
  0002e	51		 push	 ecx
  0002f	e8 00 00 00 00	 call	 ??_V@YAXPAX@Z		; operator delete[]
  00034	83 c4 04	 add	 esp, 4

; 54   :       items       = 0;

  00037	c7 06 00 00 00
	00		 mov	 DWORD PTR [esi], 0

; 55   :       extent  = 0;

  0003d	c7 46 04 00 00
	00 00		 mov	 DWORD PTR [esi+4], 0

; 56   :       array       = 0;

  00044	c7 46 08 00 00
	00 00		 mov	 DWORD PTR [esi+8], 0
  0004b	5f		 pop	 edi
$LN4@destroy:

; 57   :    }
; 58   : }

  0004c	c3		 ret	 0
?destroy@?$List@VAsteroid@@@@QAEXXZ ENDP		; List<Asteroid>::destroy
; Function compile flags: /Ogtp
_TEXT	ENDS
;	COMDAT ?append@?$List@VAsteroid@@@@QAEXPBVAsteroid@@@Z
_TEXT	SEGMENT
?append@?$List@VAsteroid@@@@QAEXPBVAsteroid@@@Z PROC	; List<Asteroid>::append, COMDAT
; _this$ = eax
; _item$ = edi

; 149  : {

  00000	56		 push	 esi
  00001	8b f0		 mov	 esi, eax

; 150  :    if (item) {

  00003	85 ff		 test	 edi, edi
  00005	74 17		 je	 SHORT $LN2@append

; 151  :       if (items+1 > extent) resize(items+1);

  00007	8b 06		 mov	 eax, DWORD PTR [esi]
  00009	40		 inc	 eax
  0000a	3b 46 04	 cmp	 eax, DWORD PTR [esi+4]
  0000d	7e 05		 jle	 SHORT $LN1@append
  0000f	e8 00 00 00 00	 call	 ?resize@?$List@VAsteroid@@@@AAEXH@Z ; List<Asteroid>::resize
$LN1@append:

; 152  :       array[items++] = (T*)item;

  00014	8b 06		 mov	 eax, DWORD PTR [esi]
  00016	8b 4e 08	 mov	 ecx, DWORD PTR [esi+8]
  00019	89 3c 81	 mov	 DWORD PTR [ecx+eax*4], edi
  0001c	ff 06		 inc	 DWORD PTR [esi]
$LN2@append:
  0001e	5e		 pop	 esi

; 153  :    }
; 154  : }

  0001f	c3		 ret	 0
?append@?$List@VAsteroid@@@@QAEXPBVAsteroid@@@Z ENDP	; List<Asteroid>::append
; Function compile flags: /Ogtp
_TEXT	ENDS
;	COMDAT ?destroy@?$List@VDebris@@@@QAEXXZ
_TEXT	SEGMENT
?destroy@?$List@VDebris@@@@QAEXXZ PROC			; List<Debris>::destroy, COMDAT
; _this$ = esi

; 47   :    if (items) {

  00000	83 3e 00	 cmp	 DWORD PTR [esi], 0
  00003	74 47		 je	 SHORT $LN4@destroy@2

; 48   :       items = 0;  // prevent dangerous re-entrancy
; 49   : 
; 50   :       for (int i = 0; i < extent; i++)

  00005	57		 push	 edi
  00006	33 ff		 xor	 edi, edi
  00008	c7 06 00 00 00
	00		 mov	 DWORD PTR [esi], 0
  0000e	39 7e 04	 cmp	 DWORD PTR [esi+4], edi
  00011	7e 18		 jle	 SHORT $LN1@destroy@2
$LL3@destroy@2:

; 51   :          delete array[i];

  00013	8b 46 08	 mov	 eax, DWORD PTR [esi+8]
  00016	8b 0c b8	 mov	 ecx, DWORD PTR [eax+edi*4]
  00019	85 c9		 test	 ecx, ecx
  0001b	74 08		 je	 SHORT $LN2@destroy@2
  0001d	8b 11		 mov	 edx, DWORD PTR [ecx]
  0001f	8b 02		 mov	 eax, DWORD PTR [edx]
  00021	6a 01		 push	 1
  00023	ff d0		 call	 eax
$LN2@destroy@2:

; 48   :       items = 0;  // prevent dangerous re-entrancy
; 49   : 
; 50   :       for (int i = 0; i < extent; i++)

  00025	47		 inc	 edi
  00026	3b 7e 04	 cmp	 edi, DWORD PTR [esi+4]
  00029	7c e8		 jl	 SHORT $LL3@destroy@2
$LN1@destroy@2:

; 52   : 
; 53   :       delete [] array;

  0002b	8b 4e 08	 mov	 ecx, DWORD PTR [esi+8]
  0002e	51		 push	 ecx
  0002f	e8 00 00 00 00	 call	 ??_V@YAXPAX@Z		; operator delete[]
  00034	83 c4 04	 add	 esp, 4

; 54   :       items       = 0;

  00037	c7 06 00 00 00
	00		 mov	 DWORD PTR [esi], 0

; 55   :       extent  = 0;

  0003d	c7 46 04 00 00
	00 00		 mov	 DWORD PTR [esi+4], 0

; 56   :       array       = 0;

  00044	c7 46 08 00 00
	00 00		 mov	 DWORD PTR [esi+8], 0
  0004b	5f		 pop	 edi
$LN4@destroy@2:

; 57   :    }
; 58   : }

  0004c	c3		 ret	 0
?destroy@?$List@VDebris@@@@QAEXXZ ENDP			; List<Debris>::destroy
; Function compile flags: /Ogtp
_TEXT	ENDS
;	COMDAT ?append@?$List@VDebris@@@@QAEXPBVDebris@@@Z
_TEXT	SEGMENT
?append@?$List@VDebris@@@@QAEXPBVDebris@@@Z PROC	; List<Debris>::append, COMDAT
; _this$ = eax
; _item$ = edi

; 149  : {

  00000	56		 push	 esi
  00001	8b f0		 mov	 esi, eax

; 150  :    if (item) {

  00003	85 ff		 test	 edi, edi
  00005	74 17		 je	 SHORT $LN2@append@2

; 151  :       if (items+1 > extent) resize(items+1);

  00007	8b 06		 mov	 eax, DWORD PTR [esi]
  00009	40		 inc	 eax
  0000a	3b 46 04	 cmp	 eax, DWORD PTR [esi+4]
  0000d	7e 05		 jle	 SHORT $LN1@append@2
  0000f	e8 00 00 00 00	 call	 ?resize@?$List@VDebris@@@@AAEXH@Z ; List<Debris>::resize
$LN1@append@2:

; 152  :       array[items++] = (T*)item;

  00014	8b 06		 mov	 eax, DWORD PTR [esi]
  00016	8b 4e 08	 mov	 ecx, DWORD PTR [esi+8]
  00019	89 3c 81	 mov	 DWORD PTR [ecx+eax*4], edi
  0001c	ff 06		 inc	 DWORD PTR [esi]
$LN2@append@2:
  0001e	5e		 pop	 esi

; 153  :    }
; 154  : }

  0001f	c3		 ret	 0
?append@?$List@VDebris@@@@QAEXPBVDebris@@@Z ENDP	; List<Debris>::append
; Function compile flags: /Ogtp
_TEXT	ENDS
;	COMDAT ?destroy@?$List@VExplosion@@@@QAEXXZ
_TEXT	SEGMENT
?destroy@?$List@VExplosion@@@@QAEXXZ PROC		; List<Explosion>::destroy, COMDAT
; _this$ = esi

; 47   :    if (items) {

  00000	83 3e 00	 cmp	 DWORD PTR [esi], 0
  00003	74 47		 je	 SHORT $LN4@destroy@3

; 48   :       items = 0;  // prevent dangerous re-entrancy
; 49   : 
; 50   :       for (int i = 0; i < extent; i++)

  00005	57		 push	 edi
  00006	33 ff		 xor	 edi, edi
  00008	c7 06 00 00 00
	00		 mov	 DWORD PTR [esi], 0
  0000e	39 7e 04	 cmp	 DWORD PTR [esi+4], edi
  00011	7e 18		 jle	 SHORT $LN1@destroy@3
$LL3@destroy@3:

; 51   :          delete array[i];

  00013	8b 46 08	 mov	 eax, DWORD PTR [esi+8]
  00016	8b 0c b8	 mov	 ecx, DWORD PTR [eax+edi*4]
  00019	85 c9		 test	 ecx, ecx
  0001b	74 08		 je	 SHORT $LN2@destroy@3
  0001d	8b 11		 mov	 edx, DWORD PTR [ecx]
  0001f	8b 02		 mov	 eax, DWORD PTR [edx]
  00021	6a 01		 push	 1
  00023	ff d0		 call	 eax
$LN2@destroy@3:

; 48   :       items = 0;  // prevent dangerous re-entrancy
; 49   : 
; 50   :       for (int i = 0; i < extent; i++)

  00025	47		 inc	 edi
  00026	3b 7e 04	 cmp	 edi, DWORD PTR [esi+4]
  00029	7c e8		 jl	 SHORT $LL3@destroy@3
$LN1@destroy@3:

; 52   : 
; 53   :       delete [] array;

  0002b	8b 4e 08	 mov	 ecx, DWORD PTR [esi+8]
  0002e	51		 push	 ecx
  0002f	e8 00 00 00 00	 call	 ??_V@YAXPAX@Z		; operator delete[]
  00034	83 c4 04	 add	 esp, 4

; 54   :       items       = 0;

  00037	c7 06 00 00 00
	00		 mov	 DWORD PTR [esi], 0

; 55   :       extent  = 0;

  0003d	c7 46 04 00 00
	00 00		 mov	 DWORD PTR [esi+4], 0

; 56   :       array       = 0;

  00044	c7 46 08 00 00
	00 00		 mov	 DWORD PTR [esi+8], 0
  0004b	5f		 pop	 edi
$LN4@destroy@3:

; 57   :    }
; 58   : }

  0004c	c3		 ret	 0
?destroy@?$List@VExplosion@@@@QAEXXZ ENDP		; List<Explosion>::destroy
; Function compile flags: /Ogtp
_TEXT	ENDS
;	COMDAT ?append@?$List@VExplosion@@@@QAEXPBVExplosion@@@Z
_TEXT	SEGMENT
?append@?$List@VExplosion@@@@QAEXPBVExplosion@@@Z PROC	; List<Explosion>::append, COMDAT
; _this$ = eax
; _item$ = edi

; 149  : {

  00000	56		 push	 esi
  00001	8b f0		 mov	 esi, eax

; 150  :    if (item) {

  00003	85 ff		 test	 edi, edi
  00005	74 17		 je	 SHORT $LN2@append@3

; 151  :       if (items+1 > extent) resize(items+1);

  00007	8b 06		 mov	 eax, DWORD PTR [esi]
  00009	40		 inc	 eax
  0000a	3b 46 04	 cmp	 eax, DWORD PTR [esi+4]
  0000d	7e 05		 jle	 SHORT $LN1@append@3
  0000f	e8 00 00 00 00	 call	 ?resize@?$List@VExplosion@@@@AAEXH@Z ; List<Explosion>::resize
$LN1@append@3:

; 152  :       array[items++] = (T*)item;

  00014	8b 06		 mov	 eax, DWORD PTR [esi]
  00016	8b 4e 08	 mov	 ecx, DWORD PTR [esi+8]
  00019	89 3c 81	 mov	 DWORD PTR [ecx+eax*4], edi
  0001c	ff 06		 inc	 DWORD PTR [esi]
$LN2@append@3:
  0001e	5e		 pop	 esi

; 153  :    }
; 154  : }

  0001f	c3		 ret	 0
?append@?$List@VExplosion@@@@QAEXPBVExplosion@@@Z ENDP	; List<Explosion>::append
; Function compile flags: /Ogtp
_TEXT	ENDS
;	COMDAT ?append@?$List@VDrone@@@@QAEXPBVDrone@@@Z
_TEXT	SEGMENT
?append@?$List@VDrone@@@@QAEXPBVDrone@@@Z PROC		; List<Drone>::append, COMDAT
; _this$ = eax
; _item$ = edi

; 149  : {

  00000	56		 push	 esi
  00001	8b f0		 mov	 esi, eax

; 150  :    if (item) {

  00003	85 ff		 test	 edi, edi
  00005	74 17		 je	 SHORT $LN2@append@4

; 151  :       if (items+1 > extent) resize(items+1);

  00007	8b 06		 mov	 eax, DWORD PTR [esi]
  00009	40		 inc	 eax
  0000a	3b 46 04	 cmp	 eax, DWORD PTR [esi+4]
  0000d	7e 05		 jle	 SHORT $LN1@append@4
  0000f	e8 00 00 00 00	 call	 ?resize@?$List@VDrone@@@@AAEXH@Z ; List<Drone>::resize
$LN1@append@4:

; 152  :       array[items++] = (T*)item;

  00014	8b 06		 mov	 eax, DWORD PTR [esi]
  00016	8b 4e 08	 mov	 ecx, DWORD PTR [esi+8]
  00019	89 3c 81	 mov	 DWORD PTR [ecx+eax*4], edi
  0001c	ff 06		 inc	 DWORD PTR [esi]
$LN2@append@4:
  0001e	5e		 pop	 esi

; 153  :    }
; 154  : }

  0001f	c3		 ret	 0
?append@?$List@VDrone@@@@QAEXPBVDrone@@@Z ENDP		; List<Drone>::append
; Function compile flags: /Ogtp
_TEXT	ENDS
;	COMDAT ?destroy@?$List@VShot@@@@QAEXXZ
_TEXT	SEGMENT
?destroy@?$List@VShot@@@@QAEXXZ PROC			; List<Shot>::destroy, COMDAT
; _this$ = esi

; 47   :    if (items) {

  00000	83 3e 00	 cmp	 DWORD PTR [esi], 0
  00003	74 47		 je	 SHORT $LN4@destroy@4

; 48   :       items = 0;  // prevent dangerous re-entrancy
; 49   : 
; 50   :       for (int i = 0; i < extent; i++)

  00005	57		 push	 edi
  00006	33 ff		 xor	 edi, edi
  00008	c7 06 00 00 00
	00		 mov	 DWORD PTR [esi], 0
  0000e	39 7e 04	 cmp	 DWORD PTR [esi+4], edi
  00011	7e 18		 jle	 SHORT $LN1@destroy@4
$LL3@destroy@4:

; 51   :          delete array[i];

  00013	8b 46 08	 mov	 eax, DWORD PTR [esi+8]
  00016	8b 0c b8	 mov	 ecx, DWORD PTR [eax+edi*4]
  00019	85 c9		 test	 ecx, ecx
  0001b	74 08		 je	 SHORT $LN2@destroy@4
  0001d	8b 11		 mov	 edx, DWORD PTR [ecx]
  0001f	8b 02		 mov	 eax, DWORD PTR [edx]
  00021	6a 01		 push	 1
  00023	ff d0		 call	 eax
$LN2@destroy@4:

; 48   :       items = 0;  // prevent dangerous re-entrancy
; 49   : 
; 50   :       for (int i = 0; i < extent; i++)

  00025	47		 inc	 edi
  00026	3b 7e 04	 cmp	 edi, DWORD PTR [esi+4]
  00029	7c e8		 jl	 SHORT $LL3@destroy@4
$LN1@destroy@4:

; 52   : 
; 53   :       delete [] array;

  0002b	8b 4e 08	 mov	 ecx, DWORD PTR [esi+8]
  0002e	51		 push	 ecx
  0002f	e8 00 00 00 00	 call	 ??_V@YAXPAX@Z		; operator delete[]
  00034	83 c4 04	 add	 esp, 4

; 54   :       items       = 0;

  00037	c7 06 00 00 00
	00		 mov	 DWORD PTR [esi], 0

; 55   :       extent  = 0;

  0003d	c7 46 04 00 00
	00 00		 mov	 DWORD PTR [esi+4], 0

; 56   :       array       = 0;

  00044	c7 46 08 00 00
	00 00		 mov	 DWORD PTR [esi+8], 0
  0004b	5f		 pop	 edi
$LN4@destroy@4:

; 57   :    }
; 58   : }

  0004c	c3		 ret	 0
?destroy@?$List@VShot@@@@QAEXXZ ENDP			; List<Shot>::destroy
; Function compile flags: /Ogtp
_TEXT	ENDS
;	COMDAT ?destroy@?$List@VShip@@@@QAEXXZ
_TEXT	SEGMENT
?destroy@?$List@VShip@@@@QAEXXZ PROC			; List<Ship>::destroy, COMDAT
; _this$ = esi

; 47   :    if (items) {

  00000	83 3e 00	 cmp	 DWORD PTR [esi], 0
  00003	74 47		 je	 SHORT $LN4@destroy@5

; 48   :       items = 0;  // prevent dangerous re-entrancy
; 49   : 
; 50   :       for (int i = 0; i < extent; i++)

  00005	57		 push	 edi
  00006	33 ff		 xor	 edi, edi
  00008	c7 06 00 00 00
	00		 mov	 DWORD PTR [esi], 0
  0000e	39 7e 04	 cmp	 DWORD PTR [esi+4], edi
  00011	7e 18		 jle	 SHORT $LN1@destroy@5
$LL3@destroy@5:

; 51   :          delete array[i];

  00013	8b 46 08	 mov	 eax, DWORD PTR [esi+8]
  00016	8b 0c b8	 mov	 ecx, DWORD PTR [eax+edi*4]
  00019	85 c9		 test	 ecx, ecx
  0001b	74 08		 je	 SHORT $LN2@destroy@5
  0001d	8b 11		 mov	 edx, DWORD PTR [ecx]
  0001f	8b 02		 mov	 eax, DWORD PTR [edx]
  00021	6a 01		 push	 1
  00023	ff d0		 call	 eax
$LN2@destroy@5:

; 48   :       items = 0;  // prevent dangerous re-entrancy
; 49   : 
; 50   :       for (int i = 0; i < extent; i++)

  00025	47		 inc	 edi
  00026	3b 7e 04	 cmp	 edi, DWORD PTR [esi+4]
  00029	7c e8		 jl	 SHORT $LL3@destroy@5
$LN1@destroy@5:

; 52   : 
; 53   :       delete [] array;

  0002b	8b 4e 08	 mov	 ecx, DWORD PTR [esi+8]
  0002e	51		 push	 ecx
  0002f	e8 00 00 00 00	 call	 ??_V@YAXPAX@Z		; operator delete[]
  00034	83 c4 04	 add	 esp, 4

; 54   :       items       = 0;

  00037	c7 06 00 00 00
	00		 mov	 DWORD PTR [esi], 0

; 55   :       extent  = 0;

  0003d	c7 46 04 00 00
	00 00		 mov	 DWORD PTR [esi+4], 0

; 56   :       array       = 0;

  00044	c7 46 08 00 00
	00 00		 mov	 DWORD PTR [esi+8], 0
  0004b	5f		 pop	 edi
$LN4@destroy@5:

; 57   :    }
; 58   : }

  0004c	c3		 ret	 0
?destroy@?$List@VShip@@@@QAEXXZ ENDP			; List<Ship>::destroy
; Function compile flags: /Ogtp
_TEXT	ENDS
;	COMDAT ?destroy@?$List@VElement@@@@QAEXXZ
_TEXT	SEGMENT
?destroy@?$List@VElement@@@@QAEXXZ PROC			; List<Element>::destroy, COMDAT
; _this$ = esi

; 47   :    if (items) {

  00000	83 3e 00	 cmp	 DWORD PTR [esi], 0
  00003	74 47		 je	 SHORT $LN4@destroy@6

; 48   :       items = 0;  // prevent dangerous re-entrancy
; 49   : 
; 50   :       for (int i = 0; i < extent; i++)

  00005	57		 push	 edi
  00006	33 ff		 xor	 edi, edi
  00008	c7 06 00 00 00
	00		 mov	 DWORD PTR [esi], 0
  0000e	39 7e 04	 cmp	 DWORD PTR [esi+4], edi
  00011	7e 18		 jle	 SHORT $LN1@destroy@6
$LL3@destroy@6:

; 51   :          delete array[i];

  00013	8b 46 08	 mov	 eax, DWORD PTR [esi+8]
  00016	8b 0c b8	 mov	 ecx, DWORD PTR [eax+edi*4]
  00019	85 c9		 test	 ecx, ecx
  0001b	74 08		 je	 SHORT $LN2@destroy@6
  0001d	8b 11		 mov	 edx, DWORD PTR [ecx]
  0001f	8b 02		 mov	 eax, DWORD PTR [edx]
  00021	6a 01		 push	 1
  00023	ff d0		 call	 eax
$LN2@destroy@6:

; 48   :       items = 0;  // prevent dangerous re-entrancy
; 49   : 
; 50   :       for (int i = 0; i < extent; i++)

  00025	47		 inc	 edi
  00026	3b 7e 04	 cmp	 edi, DWORD PTR [esi+4]
  00029	7c e8		 jl	 SHORT $LL3@destroy@6
$LN1@destroy@6:

; 52   : 
; 53   :       delete [] array;

  0002b	8b 4e 08	 mov	 ecx, DWORD PTR [esi+8]
  0002e	51		 push	 ecx
  0002f	e8 00 00 00 00	 call	 ??_V@YAXPAX@Z		; operator delete[]
  00034	83 c4 04	 add	 esp, 4

; 54   :       items       = 0;

  00037	c7 06 00 00 00
	00		 mov	 DWORD PTR [esi], 0

; 55   :       extent  = 0;

  0003d	c7 46 04 00 00
	00 00		 mov	 DWORD PTR [esi+4], 0

; 56   :       array       = 0;

  00044	c7 46 08 00 00
	00 00		 mov	 DWORD PTR [esi+8], 0
  0004b	5f		 pop	 edi
$LN4@destroy@6:

; 57   :    }
; 58   : }

  0004c	c3		 ret	 0
?destroy@?$List@VElement@@@@QAEXXZ ENDP			; List<Element>::destroy
; Function compile flags: /Ogtp
_TEXT	ENDS
;	COMDAT ?destroy@?$List@VSimSplash@@@@QAEXXZ
_TEXT	SEGMENT
?destroy@?$List@VSimSplash@@@@QAEXXZ PROC		; List<SimSplash>::destroy, COMDAT
; _this$ = esi

; 47   :    if (items) {

  00000	83 3e 00	 cmp	 DWORD PTR [esi], 0
  00003	74 47		 je	 SHORT $LN4@destroy@7

; 48   :       items = 0;  // prevent dangerous re-entrancy
; 49   : 
; 50   :       for (int i = 0; i < extent; i++)

  00005	57		 push	 edi
  00006	33 ff		 xor	 edi, edi
  00008	c7 06 00 00 00
	00		 mov	 DWORD PTR [esi], 0
  0000e	39 7e 04	 cmp	 DWORD PTR [esi+4], edi
  00011	7e 22		 jle	 SHORT $LN1@destroy@7
  00013	53		 push	 ebx
$LL3@destroy@7:

; 51   :          delete array[i];

  00014	8b 46 08	 mov	 eax, DWORD PTR [esi+8]
  00017	8b 1c b8	 mov	 ebx, DWORD PTR [eax+edi*4]
  0001a	85 db		 test	 ebx, ebx
  0001c	74 10		 je	 SHORT $LN2@destroy@7
  0001e	8b cb		 mov	 ecx, ebx
  00020	e8 00 00 00 00	 call	 ??1Text@@QAE@XZ		; Text::~Text
  00025	53		 push	 ebx
  00026	e8 00 00 00 00	 call	 ??3@YAXPAX@Z		; operator delete
  0002b	83 c4 04	 add	 esp, 4
$LN2@destroy@7:

; 48   :       items = 0;  // prevent dangerous re-entrancy
; 49   : 
; 50   :       for (int i = 0; i < extent; i++)

  0002e	47		 inc	 edi
  0002f	3b 7e 04	 cmp	 edi, DWORD PTR [esi+4]
  00032	7c e0		 jl	 SHORT $LL3@destroy@7
  00034	5b		 pop	 ebx
$LN1@destroy@7:

; 52   : 
; 53   :       delete [] array;

  00035	8b 4e 08	 mov	 ecx, DWORD PTR [esi+8]
  00038	51		 push	 ecx
  00039	e8 00 00 00 00	 call	 ??_V@YAXPAX@Z		; operator delete[]
  0003e	83 c4 04	 add	 esp, 4

; 54   :       items       = 0;

  00041	33 c0		 xor	 eax, eax
  00043	89 06		 mov	 DWORD PTR [esi], eax

; 55   :       extent  = 0;

  00045	89 46 04	 mov	 DWORD PTR [esi+4], eax

; 56   :       array       = 0;

  00048	89 46 08	 mov	 DWORD PTR [esi+8], eax
  0004b	5f		 pop	 edi
$LN4@destroy@7:

; 57   :    }
; 58   : }

  0004c	c3		 ret	 0
?destroy@?$List@VSimSplash@@@@QAEXXZ ENDP		; List<SimSplash>::destroy
; Function compile flags: /Ogtp
_TEXT	ENDS
;	COMDAT ?append@?$List@VSimSplash@@@@QAEXPBVSimSplash@@@Z
_TEXT	SEGMENT
?append@?$List@VSimSplash@@@@QAEXPBVSimSplash@@@Z PROC	; List<SimSplash>::append, COMDAT
; _this$ = eax
; _item$ = edi

; 149  : {

  00000	56		 push	 esi
  00001	8b f0		 mov	 esi, eax

; 150  :    if (item) {

  00003	85 ff		 test	 edi, edi
  00005	74 17		 je	 SHORT $LN2@append@5

; 151  :       if (items+1 > extent) resize(items+1);

  00007	8b 06		 mov	 eax, DWORD PTR [esi]
  00009	40		 inc	 eax
  0000a	3b 46 04	 cmp	 eax, DWORD PTR [esi+4]
  0000d	7e 05		 jle	 SHORT $LN1@append@5
  0000f	e8 00 00 00 00	 call	 ?resize@?$List@VSimSplash@@@@AAEXH@Z ; List<SimSplash>::resize
$LN1@append@5:

; 152  :       array[items++] = (T*)item;

  00014	8b 06		 mov	 eax, DWORD PTR [esi]
  00016	8b 4e 08	 mov	 ecx, DWORD PTR [esi+8]
  00019	89 3c 81	 mov	 DWORD PTR [ecx+eax*4], edi
  0001c	ff 06		 inc	 DWORD PTR [esi]
$LN2@append@5:
  0001e	5e		 pop	 esi

; 153  :    }
; 154  : }

  0001f	c3		 ret	 0
?append@?$List@VSimSplash@@@@QAEXPBVSimSplash@@@Z ENDP	; List<SimSplash>::append
; Function compile flags: /Ogtp
_TEXT	ENDS
;	COMDAT ?destroy@?$List@VSimHyper@@@@QAEXXZ
_TEXT	SEGMENT
?destroy@?$List@VSimHyper@@@@QAEXXZ PROC		; List<SimHyper>::destroy, COMDAT
; _this$ = esi

; 47   :    if (items) {

  00000	83 3e 00	 cmp	 DWORD PTR [esi], 0
  00003	74 44		 je	 SHORT $LN4@destroy@8

; 48   :       items = 0;  // prevent dangerous re-entrancy
; 49   : 
; 50   :       for (int i = 0; i < extent; i++)

  00005	57		 push	 edi
  00006	33 ff		 xor	 edi, edi
  00008	c7 06 00 00 00
	00		 mov	 DWORD PTR [esi], 0
  0000e	39 7e 04	 cmp	 DWORD PTR [esi+4], edi
  00011	7e 15		 jle	 SHORT $LN1@destroy@8
$LL3@destroy@8:

; 51   :          delete array[i];

  00013	8b 46 08	 mov	 eax, DWORD PTR [esi+8]
  00016	8b 0c b8	 mov	 ecx, DWORD PTR [eax+edi*4]
  00019	51		 push	 ecx
  0001a	e8 00 00 00 00	 call	 ??3@YAXPAX@Z		; operator delete
  0001f	47		 inc	 edi
  00020	83 c4 04	 add	 esp, 4
  00023	3b 7e 04	 cmp	 edi, DWORD PTR [esi+4]
  00026	7c eb		 jl	 SHORT $LL3@destroy@8
$LN1@destroy@8:

; 52   : 
; 53   :       delete [] array;

  00028	8b 56 08	 mov	 edx, DWORD PTR [esi+8]
  0002b	52		 push	 edx
  0002c	e8 00 00 00 00	 call	 ??_V@YAXPAX@Z		; operator delete[]
  00031	83 c4 04	 add	 esp, 4

; 54   :       items       = 0;

  00034	c7 06 00 00 00
	00		 mov	 DWORD PTR [esi], 0

; 55   :       extent  = 0;

  0003a	c7 46 04 00 00
	00 00		 mov	 DWORD PTR [esi+4], 0

; 56   :       array       = 0;

  00041	c7 46 08 00 00
	00 00		 mov	 DWORD PTR [esi+8], 0
  00048	5f		 pop	 edi
$LN4@destroy@8:

; 57   :    }
; 58   : }

  00049	c3		 ret	 0
?destroy@?$List@VSimHyper@@@@QAEXXZ ENDP		; List<SimHyper>::destroy
; Function compile flags: /Ogtp
_TEXT	ENDS
;	COMDAT ?append@?$List@VSimHyper@@@@QAEXPBVSimHyper@@@Z
_TEXT	SEGMENT
?append@?$List@VSimHyper@@@@QAEXPBVSimHyper@@@Z PROC	; List<SimHyper>::append, COMDAT
; _this$ = eax
; _item$ = edi

; 149  : {

  00000	56		 push	 esi
  00001	8b f0		 mov	 esi, eax

; 150  :    if (item) {

  00003	85 ff		 test	 edi, edi
  00005	74 17		 je	 SHORT $LN2@append@6

; 151  :       if (items+1 > extent) resize(items+1);

  00007	8b 06		 mov	 eax, DWORD PTR [esi]
  00009	40		 inc	 eax
  0000a	3b 46 04	 cmp	 eax, DWORD PTR [esi+4]
  0000d	7e 05		 jle	 SHORT $LN1@append@6
  0000f	e8 00 00 00 00	 call	 ?resize@?$List@VSimHyper@@@@AAEXH@Z ; List<SimHyper>::resize
$LN1@append@6:

; 152  :       array[items++] = (T*)item;

  00014	8b 06		 mov	 eax, DWORD PTR [esi]
  00016	8b 4e 08	 mov	 ecx, DWORD PTR [esi+8]
  00019	89 3c 81	 mov	 DWORD PTR [ecx+eax*4], edi
  0001c	ff 06		 inc	 DWORD PTR [esi]
$LN2@append@6:
  0001e	5e		 pop	 esi

; 153  :    }
; 154  : }

  0001f	c3		 ret	 0
?append@?$List@VSimHyper@@@@QAEXPBVSimHyper@@@Z ENDP	; List<SimHyper>::append
; Function compile flags: /Ogtp
_TEXT	ENDS
;	COMDAT ?destroy@?$List@VSimRegion@@@@QAEXXZ
_TEXT	SEGMENT
?destroy@?$List@VSimRegion@@@@QAEXXZ PROC		; List<SimRegion>::destroy, COMDAT
; _this$ = esi

; 47   :    if (items) {

  00000	83 3e 00	 cmp	 DWORD PTR [esi], 0
  00003	74 47		 je	 SHORT $LN4@destroy@9

; 48   :       items = 0;  // prevent dangerous re-entrancy
; 49   : 
; 50   :       for (int i = 0; i < extent; i++)

  00005	57		 push	 edi
  00006	33 ff		 xor	 edi, edi
  00008	c7 06 00 00 00
	00		 mov	 DWORD PTR [esi], 0
  0000e	39 7e 04	 cmp	 DWORD PTR [esi+4], edi
  00011	7e 18		 jle	 SHORT $LN1@destroy@9
$LL3@destroy@9:

; 51   :          delete array[i];

  00013	8b 46 08	 mov	 eax, DWORD PTR [esi+8]
  00016	8b 0c b8	 mov	 ecx, DWORD PTR [eax+edi*4]
  00019	85 c9		 test	 ecx, ecx
  0001b	74 08		 je	 SHORT $LN2@destroy@9
  0001d	8b 11		 mov	 edx, DWORD PTR [ecx]
  0001f	8b 02		 mov	 eax, DWORD PTR [edx]
  00021	6a 01		 push	 1
  00023	ff d0		 call	 eax
$LN2@destroy@9:

; 48   :       items = 0;  // prevent dangerous re-entrancy
; 49   : 
; 50   :       for (int i = 0; i < extent; i++)

  00025	47		 inc	 edi
  00026	3b 7e 04	 cmp	 edi, DWORD PTR [esi+4]
  00029	7c e8		 jl	 SHORT $LL3@destroy@9
$LN1@destroy@9:

; 52   : 
; 53   :       delete [] array;

  0002b	8b 4e 08	 mov	 ecx, DWORD PTR [esi+8]
  0002e	51		 push	 ecx
  0002f	e8 00 00 00 00	 call	 ??_V@YAXPAX@Z		; operator delete[]
  00034	83 c4 04	 add	 esp, 4

; 54   :       items       = 0;

  00037	c7 06 00 00 00
	00		 mov	 DWORD PTR [esi], 0

; 55   :       extent  = 0;

  0003d	c7 46 04 00 00
	00 00		 mov	 DWORD PTR [esi+4], 0

; 56   :       array       = 0;

  00044	c7 46 08 00 00
	00 00		 mov	 DWORD PTR [esi+8], 0
  0004b	5f		 pop	 edi
$LN4@destroy@9:

; 57   :    }
; 58   : }

  0004c	c3		 ret	 0
?destroy@?$List@VSimRegion@@@@QAEXXZ ENDP		; List<SimRegion>::destroy
; Function compile flags: /Ogtp
_TEXT	ENDS
;	COMDAT ?clear@?$List@VSimRegion@@@@QAEXXZ
_TEXT	SEGMENT
?clear@?$List@VSimRegion@@@@QAEXXZ PROC			; List<SimRegion>::clear, COMDAT
; _this$ = esi

; 38   :    delete [] array;

  00000	8b 46 08	 mov	 eax, DWORD PTR [esi+8]
  00003	50		 push	 eax
  00004	e8 00 00 00 00	 call	 ??_V@YAXPAX@Z		; operator delete[]

; 39   :    items       = 0;

  00009	33 c0		 xor	 eax, eax
  0000b	83 c4 04	 add	 esp, 4
  0000e	89 06		 mov	 DWORD PTR [esi], eax

; 40   :    extent  = 0;

  00010	89 46 04	 mov	 DWORD PTR [esi+4], eax

; 41   :    array       = 0;

  00013	89 46 08	 mov	 DWORD PTR [esi+8], eax

; 42   : }

  00016	c3		 ret	 0
?clear@?$List@VSimRegion@@@@QAEXXZ ENDP			; List<SimRegion>::clear
; Function compile flags: /Ogtp
; File c:\matrix games\source\foundationex\list.h
_TEXT	ENDS
;	COMDAT ??C?$ListIter@VExplosion@@@@QAEPAVExplosion@@XZ
_TEXT	SEGMENT
??C?$ListIter@VExplosion@@@@QAEPAVExplosion@@XZ PROC	; ListIter<Explosion>::operator->, COMDAT
; _this$ = eax

; 86   :    T*  operator->() { return value();     }

  00000	e9 00 00 00 00	 jmp	 ?value@?$ListIter@VExplosion@@@@QAEPAVExplosion@@XZ ; ListIter<Explosion>::value
??C?$ListIter@VExplosion@@@@QAEPAVExplosion@@XZ ENDP	; ListIter<Explosion>::operator->
; Function compile flags: /Ogtp
_TEXT	ENDS
;	COMDAT ??E?$ListIter@VExplosion@@@@QAEHXZ
_TEXT	SEGMENT
??E?$ListIter@VExplosion@@@@QAEHXZ PROC			; ListIter<Explosion>::operator++, COMDAT
; _this$ = edx

; 84   :    int operator++() { return next() != 0; }

  00000	e8 00 00 00 00	 call	 ?next@?$ListIter@VExplosion@@@@QAEPAVExplosion@@XZ ; ListIter<Explosion>::next
  00005	f7 d8		 neg	 eax
  00007	1b c0		 sbb	 eax, eax
  00009	f7 d8		 neg	 eax
  0000b	c3		 ret	 0
??E?$ListIter@VExplosion@@@@QAEHXZ ENDP			; ListIter<Explosion>::operator++
; Function compile flags: /Ogtp
_TEXT	ENDS
;	COMDAT ??0?$ListIter@VExplosion@@@@QAE@AAV?$List@VExplosion@@@@@Z
_TEXT	SEGMENT
??0?$ListIter@VExplosion@@@@QAE@AAV?$List@VExplosion@@@@@Z PROC ; ListIter<Explosion>::ListIter<Explosion>, COMDAT
; _this$ = eax
; _l$ = ecx

; 82   :    ListIter(List<T>& l)             : list(&l),     step(-1)      { }

  00000	89 08		 mov	 DWORD PTR [eax], ecx
  00002	c7 40 04 ff ff
	ff ff		 mov	 DWORD PTR [eax+4], -1
  00009	c3		 ret	 0
??0?$ListIter@VExplosion@@@@QAE@AAV?$List@VExplosion@@@@@Z ENDP ; ListIter<Explosion>::ListIter<Explosion>
; Function compile flags: /Ogtp
_TEXT	ENDS
;	COMDAT ??E?$ListIter@VSimSplash@@@@QAEHXZ
_TEXT	SEGMENT
??E?$ListIter@VSimSplash@@@@QAEHXZ PROC			; ListIter<SimSplash>::operator++, COMDAT
; _this$ = edx

; 84   :    int operator++() { return next() != 0; }

  00000	e8 00 00 00 00	 call	 ?next@?$ListIter@VSimSplash@@@@QAEPAVSimSplash@@XZ ; ListIter<SimSplash>::next
  00005	f7 d8		 neg	 eax
  00007	1b c0		 sbb	 eax, eax
  00009	f7 d8		 neg	 eax
  0000b	c3		 ret	 0
??E?$ListIter@VSimSplash@@@@QAEHXZ ENDP			; ListIter<SimSplash>::operator++
; Function compile flags: /Ogtp
_TEXT	ENDS
;	COMDAT ??0?$ListIter@VSimSplash@@@@QAE@AAV?$List@VSimSplash@@@@@Z
_TEXT	SEGMENT
??0?$ListIter@VSimSplash@@@@QAE@AAV?$List@VSimSplash@@@@@Z PROC ; ListIter<SimSplash>::ListIter<SimSplash>, COMDAT
; _this$ = eax
; _l$ = ecx

; 82   :    ListIter(List<T>& l)             : list(&l),     step(-1)      { }

  00000	89 08		 mov	 DWORD PTR [eax], ecx
  00002	c7 40 04 ff ff
	ff ff		 mov	 DWORD PTR [eax+4], -1
  00009	c3		 ret	 0
??0?$ListIter@VSimSplash@@@@QAE@AAV?$List@VSimSplash@@@@@Z ENDP ; ListIter<SimSplash>::ListIter<SimSplash>
; Function compile flags: /Ogtp
_TEXT	ENDS
;	COMDAT ??E?$ListIter@VSimHyper@@@@QAEHXZ
_TEXT	SEGMENT
??E?$ListIter@VSimHyper@@@@QAEHXZ PROC			; ListIter<SimHyper>::operator++, COMDAT
; _this$ = edx

; 84   :    int operator++() { return next() != 0; }

  00000	e8 00 00 00 00	 call	 ?next@?$ListIter@VSimHyper@@@@QAEPAVSimHyper@@XZ ; ListIter<SimHyper>::next
  00005	f7 d8		 neg	 eax
  00007	1b c0		 sbb	 eax, eax
  00009	f7 d8		 neg	 eax
  0000b	c3		 ret	 0
??E?$ListIter@VSimHyper@@@@QAEHXZ ENDP			; ListIter<SimHyper>::operator++
; Function compile flags: /Ogtp
_TEXT	ENDS
;	COMDAT ??0?$ListIter@VSimHyper@@@@QAE@AAV?$List@VSimHyper@@@@@Z
_TEXT	SEGMENT
??0?$ListIter@VSimHyper@@@@QAE@AAV?$List@VSimHyper@@@@@Z PROC ; ListIter<SimHyper>::ListIter<SimHyper>, COMDAT
; _this$ = eax
; _l$ = ecx

; 82   :    ListIter(List<T>& l)             : list(&l),     step(-1)      { }

  00000	89 08		 mov	 DWORD PTR [eax], ecx
  00002	c7 40 04 ff ff
	ff ff		 mov	 DWORD PTR [eax+4], -1
  00009	c3		 ret	 0
??0?$ListIter@VSimHyper@@@@QAE@AAV?$List@VSimHyper@@@@@Z ENDP ; ListIter<SimHyper>::ListIter<SimHyper>
; Function compile flags: /Ogtp
_TEXT	ENDS
;	COMDAT ??E?$ListIter@VModel@@@@QAEHXZ
_TEXT	SEGMENT
??E?$ListIter@VModel@@@@QAEHXZ PROC			; ListIter<Model>::operator++, COMDAT
; _this$ = ecx

; 84   :    int operator++() { return next() != 0; }

  00000	e8 00 00 00 00	 call	 ?next@?$ListIter@VModel@@@@QAEPAVModel@@XZ ; ListIter<Model>::next
  00005	f7 d8		 neg	 eax
  00007	1b c0		 sbb	 eax, eax
  00009	f7 d8		 neg	 eax
  0000b	c3		 ret	 0
??E?$ListIter@VModel@@@@QAEHXZ ENDP			; ListIter<Model>::operator++
; Function compile flags: /Ogtp
_TEXT	ENDS
;	COMDAT ??0?$ListIter@VModel@@@@QAE@AAV?$List@VModel@@@@@Z
_TEXT	SEGMENT
_l$ = 8							; size = 4
??0?$ListIter@VModel@@@@QAE@AAV?$List@VModel@@@@@Z PROC	; ListIter<Model>::ListIter<Model>, COMDAT
; _this$ = ecx

; 82   :    ListIter(List<T>& l)             : list(&l),     step(-1)      { }

  00000	55		 push	 ebp
  00001	8b ec		 mov	 ebp, esp
  00003	8b c1		 mov	 eax, ecx
  00005	8b 4d 08	 mov	 ecx, DWORD PTR _l$[ebp]
  00008	89 08		 mov	 DWORD PTR [eax], ecx
  0000a	c7 40 04 ff ff
	ff ff		 mov	 DWORD PTR [eax+4], -1
  00011	5d		 pop	 ebp
  00012	c2 04 00	 ret	 4
??0?$ListIter@VModel@@@@QAE@AAV?$List@VModel@@@@@Z ENDP	; ListIter<Model>::ListIter<Model>
; Function compile flags: /Ogtp
_TEXT	ENDS
;	COMDAT ??1?$List@VAsteroid@@@@QAE@XZ
_TEXT	SEGMENT
??1?$List@VAsteroid@@@@QAE@XZ PROC			; List<Asteroid>::~List<Asteroid>, COMDAT
; _this$ = eax

; 30   :    ~List()  { delete [] array; }

  00000	8b 48 08	 mov	 ecx, DWORD PTR [eax+8]
  00003	51		 push	 ecx
  00004	e8 00 00 00 00	 call	 ??_V@YAXPAX@Z		; operator delete[]
  00009	59		 pop	 ecx
  0000a	c3		 ret	 0
??1?$List@VAsteroid@@@@QAE@XZ ENDP			; List<Asteroid>::~List<Asteroid>
; Function compile flags: /Ogtp
_TEXT	ENDS
;	COMDAT ??0?$List@VAsteroid@@@@QAE@XZ
_TEXT	SEGMENT
??0?$List@VAsteroid@@@@QAE@XZ PROC			; List<Asteroid>::List<Asteroid>, COMDAT
; _this$ = eax

; 28   :    List()   : items(0), extent(0), array(0) { }

  00000	33 c9		 xor	 ecx, ecx
  00002	89 08		 mov	 DWORD PTR [eax], ecx
  00004	89 48 04	 mov	 DWORD PTR [eax+4], ecx
  00007	89 48 08	 mov	 DWORD PTR [eax+8], ecx
  0000a	c3		 ret	 0
??0?$List@VAsteroid@@@@QAE@XZ ENDP			; List<Asteroid>::List<Asteroid>
; Function compile flags: /Ogtp
_TEXT	ENDS
;	COMDAT ?size@?$List@VDebris@@@@QBEHXZ
_TEXT	SEGMENT
?size@?$List@VDebris@@@@QBEHXZ PROC			; List<Debris>::size, COMDAT
; _this$ = eax

; 50   :    int      size()    const      { return items;  }

  00000	8b 00		 mov	 eax, DWORD PTR [eax]
  00002	c3		 ret	 0
?size@?$List@VDebris@@@@QBEHXZ ENDP			; List<Debris>::size
; Function compile flags: /Ogtp
_TEXT	ENDS
;	COMDAT ??1?$List@VDebris@@@@QAE@XZ
_TEXT	SEGMENT
??1?$List@VDebris@@@@QAE@XZ PROC			; List<Debris>::~List<Debris>, COMDAT
; _this$ = eax

; 30   :    ~List()  { delete [] array; }

  00000	8b 48 08	 mov	 ecx, DWORD PTR [eax+8]
  00003	51		 push	 ecx
  00004	e8 00 00 00 00	 call	 ??_V@YAXPAX@Z		; operator delete[]
  00009	59		 pop	 ecx
  0000a	c3		 ret	 0
??1?$List@VDebris@@@@QAE@XZ ENDP			; List<Debris>::~List<Debris>
; Function compile flags: /Ogtp
_TEXT	ENDS
;	COMDAT ??0?$List@VDebris@@@@QAE@XZ
_TEXT	SEGMENT
??0?$List@VDebris@@@@QAE@XZ PROC			; List<Debris>::List<Debris>, COMDAT
; _this$ = eax

; 28   :    List()   : items(0), extent(0), array(0) { }

  00000	33 c9		 xor	 ecx, ecx
  00002	89 08		 mov	 DWORD PTR [eax], ecx
  00004	89 48 04	 mov	 DWORD PTR [eax+4], ecx
  00007	89 48 08	 mov	 DWORD PTR [eax+8], ecx
  0000a	c3		 ret	 0
??0?$List@VDebris@@@@QAE@XZ ENDP			; List<Debris>::List<Debris>
; Function compile flags: /Ogtp
_TEXT	ENDS
;	COMDAT ??1?$List@VExplosion@@@@QAE@XZ
_TEXT	SEGMENT
??1?$List@VExplosion@@@@QAE@XZ PROC			; List<Explosion>::~List<Explosion>, COMDAT
; _this$ = eax

; 30   :    ~List()  { delete [] array; }

  00000	8b 48 08	 mov	 ecx, DWORD PTR [eax+8]
  00003	51		 push	 ecx
  00004	e8 00 00 00 00	 call	 ??_V@YAXPAX@Z		; operator delete[]
  00009	59		 pop	 ecx
  0000a	c3		 ret	 0
??1?$List@VExplosion@@@@QAE@XZ ENDP			; List<Explosion>::~List<Explosion>
; Function compile flags: /Ogtp
_TEXT	ENDS
;	COMDAT ??0?$List@VExplosion@@@@QAE@XZ
_TEXT	SEGMENT
??0?$List@VExplosion@@@@QAE@XZ PROC			; List<Explosion>::List<Explosion>, COMDAT
; _this$ = eax

; 28   :    List()   : items(0), extent(0), array(0) { }

  00000	33 c9		 xor	 ecx, ecx
  00002	89 08		 mov	 DWORD PTR [eax], ecx
  00004	89 48 04	 mov	 DWORD PTR [eax+4], ecx
  00007	89 48 08	 mov	 DWORD PTR [eax+8], ecx
  0000a	c3		 ret	 0
??0?$List@VExplosion@@@@QAE@XZ ENDP			; List<Explosion>::List<Explosion>
; Function compile flags: /Ogtp
_TEXT	ENDS
;	COMDAT ??1?$List@VDrone@@@@QAE@XZ
_TEXT	SEGMENT
??1?$List@VDrone@@@@QAE@XZ PROC				; List<Drone>::~List<Drone>, COMDAT
; _this$ = eax

; 30   :    ~List()  { delete [] array; }

  00000	8b 48 08	 mov	 ecx, DWORD PTR [eax+8]
  00003	51		 push	 ecx
  00004	e8 00 00 00 00	 call	 ??_V@YAXPAX@Z		; operator delete[]
  00009	59		 pop	 ecx
  0000a	c3		 ret	 0
??1?$List@VDrone@@@@QAE@XZ ENDP				; List<Drone>::~List<Drone>
; Function compile flags: /Ogtp
_TEXT	ENDS
;	COMDAT ??0?$List@VDrone@@@@QAE@XZ
_TEXT	SEGMENT
??0?$List@VDrone@@@@QAE@XZ PROC				; List<Drone>::List<Drone>, COMDAT
; _this$ = eax

; 28   :    List()   : items(0), extent(0), array(0) { }

  00000	33 c9		 xor	 ecx, ecx
  00002	89 08		 mov	 DWORD PTR [eax], ecx
  00004	89 48 04	 mov	 DWORD PTR [eax+4], ecx
  00007	89 48 08	 mov	 DWORD PTR [eax+8], ecx
  0000a	c3		 ret	 0
??0?$List@VDrone@@@@QAE@XZ ENDP				; List<Drone>::List<Drone>
; Function compile flags: /Ogtp
_TEXT	ENDS
;	COMDAT ?size@?$List@VSimSplash@@@@QBEHXZ
_TEXT	SEGMENT
?size@?$List@VSimSplash@@@@QBEHXZ PROC			; List<SimSplash>::size, COMDAT
; _this$ = eax

; 50   :    int      size()    const      { return items;  }

  00000	8b 00		 mov	 eax, DWORD PTR [eax]
  00002	c3		 ret	 0
?size@?$List@VSimSplash@@@@QBEHXZ ENDP			; List<SimSplash>::size
; Function compile flags: /Ogtp
_TEXT	ENDS
;	COMDAT ??1?$List@VSimSplash@@@@QAE@XZ
_TEXT	SEGMENT
??1?$List@VSimSplash@@@@QAE@XZ PROC			; List<SimSplash>::~List<SimSplash>, COMDAT
; _this$ = eax

; 30   :    ~List()  { delete [] array; }

  00000	8b 48 08	 mov	 ecx, DWORD PTR [eax+8]
  00003	51		 push	 ecx
  00004	e8 00 00 00 00	 call	 ??_V@YAXPAX@Z		; operator delete[]
  00009	59		 pop	 ecx
  0000a	c3		 ret	 0
??1?$List@VSimSplash@@@@QAE@XZ ENDP			; List<SimSplash>::~List<SimSplash>
; Function compile flags: /Ogtp
_TEXT	ENDS
;	COMDAT ??0?$List@VSimSplash@@@@QAE@XZ
_TEXT	SEGMENT
??0?$List@VSimSplash@@@@QAE@XZ PROC			; List<SimSplash>::List<SimSplash>, COMDAT
; _this$ = eax

; 28   :    List()   : items(0), extent(0), array(0) { }

  00000	33 c9		 xor	 ecx, ecx
  00002	89 08		 mov	 DWORD PTR [eax], ecx
  00004	89 48 04	 mov	 DWORD PTR [eax+4], ecx
  00007	89 48 08	 mov	 DWORD PTR [eax+8], ecx
  0000a	c3		 ret	 0
??0?$List@VSimSplash@@@@QAE@XZ ENDP			; List<SimSplash>::List<SimSplash>
; Function compile flags: /Ogtp
_TEXT	ENDS
;	COMDAT ?size@?$List@VSimHyper@@@@QBEHXZ
_TEXT	SEGMENT
?size@?$List@VSimHyper@@@@QBEHXZ PROC			; List<SimHyper>::size, COMDAT
; _this$ = eax

; 50   :    int      size()    const      { return items;  }

  00000	8b 00		 mov	 eax, DWORD PTR [eax]
  00002	c3		 ret	 0
?size@?$List@VSimHyper@@@@QBEHXZ ENDP			; List<SimHyper>::size
; Function compile flags: /Ogtp
_TEXT	ENDS
;	COMDAT ??1?$List@VSimHyper@@@@QAE@XZ
_TEXT	SEGMENT
??1?$List@VSimHyper@@@@QAE@XZ PROC			; List<SimHyper>::~List<SimHyper>, COMDAT
; _this$ = eax

; 30   :    ~List()  { delete [] array; }

  00000	8b 48 08	 mov	 ecx, DWORD PTR [eax+8]
  00003	51		 push	 ecx
  00004	e8 00 00 00 00	 call	 ??_V@YAXPAX@Z		; operator delete[]
  00009	59		 pop	 ecx
  0000a	c3		 ret	 0
??1?$List@VSimHyper@@@@QAE@XZ ENDP			; List<SimHyper>::~List<SimHyper>
; Function compile flags: /Ogtp
_TEXT	ENDS
;	COMDAT ??0?$List@VSimHyper@@@@QAE@XZ
_TEXT	SEGMENT
??0?$List@VSimHyper@@@@QAE@XZ PROC			; List<SimHyper>::List<SimHyper>, COMDAT
; _this$ = eax

; 28   :    List()   : items(0), extent(0), array(0) { }

  00000	33 c9		 xor	 ecx, ecx
  00002	89 08		 mov	 DWORD PTR [eax], ecx
  00004	89 48 04	 mov	 DWORD PTR [eax+4], ecx
  00007	89 48 08	 mov	 DWORD PTR [eax+8], ecx
  0000a	c3		 ret	 0
??0?$List@VSimHyper@@@@QAE@XZ ENDP			; List<SimHyper>::List<SimHyper>
; Function compile flags: /Ogtp
_TEXT	ENDS
;	COMDAT ?isEmpty@?$List@VSimRegion@@@@QBE_NXZ
_TEXT	SEGMENT
?isEmpty@?$List@VSimRegion@@@@QBE_NXZ PROC		; List<SimRegion>::isEmpty, COMDAT
; _this$ = ecx

; 51   :    bool     isEmpty() const      { return !items; }

  00000	33 c0		 xor	 eax, eax
  00002	39 01		 cmp	 DWORD PTR [ecx], eax
  00004	0f 94 c0	 sete	 al
  00007	c3		 ret	 0
?isEmpty@?$List@VSimRegion@@@@QBE_NXZ ENDP		; List<SimRegion>::isEmpty
_TEXT	ENDS
PUBLIC	?NetDockShip@SimRegion@@IAEXPAVShip@@0PAVFlightDeck@@@Z ; SimRegion::NetDockShip
; Function compile flags: /Ogtp
; File c:\matrix games\source\stars45\sim.cpp
;	COMDAT ?NetDockShip@SimRegion@@IAEXPAVShip@@0PAVFlightDeck@@@Z
_TEXT	SEGMENT
_carrier$ = 8						; size = 4
?NetDockShip@SimRegion@@IAEXPAVShip@@0PAVFlightDeck@@@Z PROC ; SimRegion::NetDockShip, COMDAT
; _ship$ = eax
; _deck$ = ecx

; 3270 : {

  00000	55		 push	 ebp
  00001	8b ec		 mov	 ebp, esp

; 3271 : 	if (!ship || !carrier || !deck) return;

  00003	85 c0		 test	 eax, eax
  00005	74 12		 je	 SHORT $LN1@NetDockShi
  00007	83 7d 08 00	 cmp	 DWORD PTR _carrier$[ebp], 0
  0000b	74 0c		 je	 SHORT $LN1@NetDockShi
  0000d	85 c9		 test	 ecx, ecx
  0000f	74 08		 je	 SHORT $LN1@NetDockShi

; 3272 : 
; 3273 : 	deck->Dock(ship);

  00011	8b 11		 mov	 edx, DWORD PTR [ecx]
  00013	50		 push	 eax
  00014	8b 42 68	 mov	 eax, DWORD PTR [edx+104]
  00017	ff d0		 call	 eax
$LN1@NetDockShi:

; 3274 : }

  00019	5d		 pop	 ebp
  0001a	c2 04 00	 ret	 4
?NetDockShip@SimRegion@@IAEXPAVShip@@0PAVFlightDeck@@@Z ENDP ; SimRegion::NetDockShip
_TEXT	ENDS
PUBLIC	?ShowGrid@SimRegion@@QAEXH@Z			; SimRegion::ShowGrid
; Function compile flags: /Ogtp
;	COMDAT ?ShowGrid@SimRegion@@QAEXH@Z
_TEXT	SEGMENT
_show$ = 8						; size = 4
?ShowGrid@SimRegion@@QAEXH@Z PROC			; SimRegion::ShowGrid, COMDAT
; _this$ = eax

; 2566 : {

  00000	55		 push	 ebp
  00001	8b ec		 mov	 ebp, esp

; 2567 : 	if (grid) {

  00003	83 78 38 00	 cmp	 DWORD PTR [eax+56], 0
  00007	74 19		 je	 SHORT $LN1@ShowGrid

; 2568 : 		if (show)

  00009	83 7d 08 00	 cmp	 DWORD PTR _show$[ebp], 0

; 2569 : 		grid->Show();

  0000d	8b 48 38	 mov	 ecx, DWORD PTR [eax+56]
  00010	8b 01		 mov	 eax, DWORD PTR [ecx]
  00012	74 09		 je	 SHORT $LN2@ShowGrid
  00014	8b 50 4c	 mov	 edx, DWORD PTR [eax+76]

; 2570 : 		else
; 2571 : 		grid->Hide();

  00017	ff d2		 call	 edx

; 2572 : 	}
; 2573 : }

  00019	5d		 pop	 ebp
  0001a	c2 04 00	 ret	 4
$LN2@ShowGrid:

; 2570 : 		else
; 2571 : 		grid->Hide();

  0001d	8b 50 48	 mov	 edx, DWORD PTR [eax+72]
  00020	ff d2		 call	 edx
$LN1@ShowGrid:

; 2572 : 	}
; 2573 : }

  00022	5d		 pop	 ebp
  00023	c2 04 00	 ret	 4
?ShowGrid@SimRegion@@QAEXH@Z ENDP			; SimRegion::ShowGrid
_TEXT	ENDS
PUBLIC	__real@408f400000000000
PUBLIC	__real@41f0000000000000
PUBLIC	?MissionClock@Sim@@QBENXZ			; Sim::MissionClock
;	COMDAT __real@408f400000000000
CONST	SEGMENT
__real@408f400000000000 DQ 0408f400000000000r	; 1000
CONST	ENDS
;	COMDAT __real@41f0000000000000
CONST	SEGMENT
__real@41f0000000000000 DQ 041f0000000000000r	; 4.29497e+009
; Function compile flags: /Ogtp
CONST	ENDS
;	COMDAT ?MissionClock@Sim@@QBENXZ
_TEXT	SEGMENT
tv131 = 8						; size = 4
_this$ = 8						; size = 4
?MissionClock@Sim@@QBENXZ PROC				; Sim::MissionClock, COMDAT

; 1898 : {

  00000	55		 push	 ebp
  00001	8b ec		 mov	 ebp, esp

; 1899 : 	return (Game::GameTime() - start_time) / 1000.0;

  00003	e8 00 00 00 00	 call	 ?GameTime@Game@@SAKXZ	; Game::GameTime
  00008	8b 4d 08	 mov	 ecx, DWORD PTR _this$[ebp]
  0000b	2b 81 c8 00 00
	00		 sub	 eax, DWORD PTR [ecx+200]
  00011	89 45 08	 mov	 DWORD PTR tv131[ebp], eax
  00014	db 45 08	 fild	 DWORD PTR tv131[ebp]
  00017	79 06		 jns	 SHORT $LN3@MissionClo
  00019	dc 05 00 00 00
	00		 fadd	 QWORD PTR __real@41f0000000000000
$LN3@MissionClo:
  0001f	dc 35 00 00 00
	00		 fdiv	 QWORD PTR __real@408f400000000000

; 1900 : }

  00025	5d		 pop	 ebp
  00026	c2 04 00	 ret	 4
?MissionClock@Sim@@QBENXZ ENDP				; Sim::MissionClock
_TEXT	ENDS
PUBLIC	?GridShown@Sim@@QBE_NXZ				; Sim::GridShown
; Function compile flags: /Ogtp
;	COMDAT ?GridShown@Sim@@QBE_NXZ
_TEXT	SEGMENT
?GridShown@Sim@@QBE_NXZ PROC				; Sim::GridShown, COMDAT
; _this$ = eax

; 1233 : 	return grid_shown;

  00000	8a 80 bd 00 00
	00		 mov	 al, BYTE PTR [eax+189]

; 1234 : }

  00006	c3		 ret	 0
?GridShown@Sim@@QBE_NXZ ENDP				; Sim::GridShown
_TEXT	ENDS
PUBLIC	?NetDockShip@Sim@@QAEXPAVShip@@0PAVFlightDeck@@@Z ; Sim::NetDockShip
; Function compile flags: /Ogtp
;	COMDAT ?NetDockShip@Sim@@QAEXPAVShip@@0PAVFlightDeck@@@Z
_TEXT	SEGMENT
_carrier$ = 8						; size = 4
_deck$ = 12						; size = 4
?NetDockShip@Sim@@QAEXPAVShip@@0PAVFlightDeck@@@Z PROC	; Sim::NetDockShip, COMDAT
; _ship$ = esi

; 1045 : {

  00000	55		 push	 ebp
  00001	8b ec		 mov	 ebp, esp

; 1046 : 	SimRegion* rgn = ship->GetRegion();

  00003	8b 06		 mov	 eax, DWORD PTR [esi]
  00005	8b 90 90 00 00
	00		 mov	 edx, DWORD PTR [eax+144]
  0000b	8b ce		 mov	 ecx, esi
  0000d	ff d2		 call	 edx

; 1047 : 	if (rgn)

  0000f	85 c0		 test	 eax, eax
  00011	74 0e		 je	 SHORT $LN1@NetDockShi@2

; 1048 : 	rgn->NetDockShip(ship, carrier, deck);

  00013	8b 45 08	 mov	 eax, DWORD PTR _carrier$[ebp]
  00016	8b 4d 0c	 mov	 ecx, DWORD PTR _deck$[ebp]
  00019	50		 push	 eax
  0001a	8b c6		 mov	 eax, esi
  0001c	e8 00 00 00 00	 call	 ?NetDockShip@SimRegion@@IAEXPAVShip@@0PAVFlightDeck@@@Z ; SimRegion::NetDockShip
$LN1@NetDockShi@2:

; 1049 : }

  00021	5d		 pop	 ebp
  00022	c2 08 00	 ret	 8
?NetDockShip@Sim@@QAEXPAVShip@@0PAVFlightDeck@@@Z ENDP	; Sim::NetDockShip
; Function compile flags: /Ogtp
_TEXT	ENDS
;	COMDAT ??_GResource@@UAEPAXI@Z
_TEXT	SEGMENT
___flags$ = 8						; size = 4
??_GResource@@UAEPAXI@Z PROC				; Resource::`scalar deleting destructor', COMDAT
; _this$ = ecx
  00000	55		 push	 ebp
  00001	8b ec		 mov	 ebp, esp
  00003	56		 push	 esi
  00004	8b f1		 mov	 esi, ecx
  00006	e8 00 00 00 00	 call	 ??1Resource@@UAE@XZ	; Resource::~Resource
  0000b	f6 45 08 01	 test	 BYTE PTR ___flags$[ebp], 1
  0000f	74 09		 je	 SHORT $LN4@scalar
  00011	56		 push	 esi
  00012	e8 00 00 00 00	 call	 ??3@YAXPAX@Z		; operator delete
  00017	83 c4 04	 add	 esp, 4
$LN4@scalar:
  0001a	8b c6		 mov	 eax, esi
  0001c	5e		 pop	 esi
  0001d	5d		 pop	 ebp
  0001e	c2 04 00	 ret	 4
??_GResource@@UAEPAXI@Z ENDP				; Resource::`scalar deleting destructor'
; Function compile flags: /Ogtp
_TEXT	ENDS
;	COMDAT ??0Resource@@QAE@ABV0@@Z
_TEXT	SEGMENT
??0Resource@@QAE@ABV0@@Z PROC				; Resource::Resource, COMDAT
; _this$ = eax
; ___that$ = ecx
  00000	c7 00 00 00 00
	00		 mov	 DWORD PTR [eax], OFFSET ??_7Resource@@6B@
  00006	8b 51 04	 mov	 edx, DWORD PTR [ecx+4]
  00009	89 50 04	 mov	 DWORD PTR [eax+4], edx
  0000c	c3		 ret	 0
??0Resource@@QAE@ABV0@@Z ENDP				; Resource::Resource
; Function compile flags: /Ogtp
_TEXT	ENDS
;	COMDAT ??_GBitmap@@UAEPAXI@Z
_TEXT	SEGMENT
___flags$ = 8						; size = 4
??_GBitmap@@UAEPAXI@Z PROC				; Bitmap::`scalar deleting destructor', COMDAT
; _this$ = ecx
  00000	55		 push	 ebp
  00001	8b ec		 mov	 ebp, esp
  00003	56		 push	 esi
  00004	8b f1		 mov	 esi, ecx
  00006	e8 00 00 00 00	 call	 ??1Bitmap@@UAE@XZ	; Bitmap::~Bitmap
  0000b	f6 45 08 01	 test	 BYTE PTR ___flags$[ebp], 1
  0000f	74 09		 je	 SHORT $LN4@scalar@2
  00011	56		 push	 esi
  00012	e8 00 00 00 00	 call	 ??3@YAXPAX@Z		; operator delete
  00017	83 c4 04	 add	 esp, 4
$LN4@scalar@2:
  0001a	8b c6		 mov	 eax, esi
  0001c	5e		 pop	 esi
  0001d	5d		 pop	 ebp
  0001e	c2 04 00	 ret	 4
??_GBitmap@@UAEPAXI@Z ENDP				; Bitmap::`scalar deleting destructor'
; Function compile flags: /Ogtp
_TEXT	ENDS
;	COMDAT ??0Bitmap@@QAE@ABV0@@Z
_TEXT	SEGMENT
??0Bitmap@@QAE@ABV0@@Z PROC				; Bitmap::Bitmap, COMDAT
; _this$ = eax
; ___that$ = ecx
  00000	c7 00 00 00 00
	00		 mov	 DWORD PTR [eax], OFFSET ??_7Resource@@6B@
  00006	8b 51 04	 mov	 edx, DWORD PTR [ecx+4]
  00009	89 50 04	 mov	 DWORD PTR [eax+4], edx
  0000c	c7 00 00 00 00
	00		 mov	 DWORD PTR [eax], OFFSET ??_7Bitmap@@6B@
  00012	8b 51 08	 mov	 edx, DWORD PTR [ecx+8]
  00015	89 50 08	 mov	 DWORD PTR [eax+8], edx
  00018	8b 51 0c	 mov	 edx, DWORD PTR [ecx+12]
  0001b	89 50 0c	 mov	 DWORD PTR [eax+12], edx
  0001e	8b 51 10	 mov	 edx, DWORD PTR [ecx+16]
  00021	89 50 10	 mov	 DWORD PTR [eax+16], edx
  00024	8b 51 14	 mov	 edx, DWORD PTR [ecx+20]
  00027	89 50 14	 mov	 DWORD PTR [eax+20], edx
  0002a	0f b6 51 18	 movzx	 edx, BYTE PTR [ecx+24]
  0002e	88 50 18	 mov	 BYTE PTR [eax+24], dl
  00031	0f b6 51 19	 movzx	 edx, BYTE PTR [ecx+25]
  00035	88 50 19	 mov	 BYTE PTR [eax+25], dl
  00038	0f b6 51 1a	 movzx	 edx, BYTE PTR [ecx+26]
  0003c	88 50 1a	 mov	 BYTE PTR [eax+26], dl
  0003f	8b 51 1c	 mov	 edx, DWORD PTR [ecx+28]
  00042	56		 push	 esi
  00043	89 50 1c	 mov	 DWORD PTR [eax+28], edx
  00046	8b 51 20	 mov	 edx, DWORD PTR [ecx+32]
  00049	57		 push	 edi
  0004a	89 50 20	 mov	 DWORD PTR [eax+32], edx
  0004d	8b 51 24	 mov	 edx, DWORD PTR [ecx+36]
  00050	8d 71 28	 lea	 esi, DWORD PTR [ecx+40]
  00053	8d 78 28	 lea	 edi, DWORD PTR [eax+40]
  00056	b9 10 00 00 00	 mov	 ecx, 16			; 00000010H
  0005b	89 50 24	 mov	 DWORD PTR [eax+36], edx
  0005e	f3 a5		 rep movsd
  00060	5f		 pop	 edi
  00061	5e		 pop	 esi
  00062	c3		 ret	 0
??0Bitmap@@QAE@ABV0@@Z ENDP				; Bitmap::Bitmap
_TEXT	ENDS
;	COMDAT xdata$x
xdata$x	SEGMENT
__unwindtable$??0MissionEvent@@QAE@ABV0@@Z DD 0ffffffffH
	DD	FLAT:__unwindfunclet$??0MissionEvent@@QAE@ABV0@@Z$0
	DD	00H
	DD	FLAT:__unwindfunclet$??0MissionEvent@@QAE@ABV0@@Z$1
	DD	01H
	DD	FLAT:__unwindfunclet$??0MissionEvent@@QAE@ABV0@@Z$2
	DD	02H
	DD	FLAT:__unwindfunclet$??0MissionEvent@@QAE@ABV0@@Z$3
	DD	03H
	DD	FLAT:__unwindfunclet$??0MissionEvent@@QAE@ABV0@@Z$4
	DD	04H
	DD	FLAT:__unwindfunclet$??0MissionEvent@@QAE@ABV0@@Z$5
__ehfuncinfo$??0MissionEvent@@QAE@ABV0@@Z DD 019930522H
	DD	06H
	DD	FLAT:__unwindtable$??0MissionEvent@@QAE@ABV0@@Z
	DD	2 DUP(00H)
	DD	2 DUP(00H)
	DD	00H
	DD	01H
; Function compile flags: /Ogtp
xdata$x	ENDS
;	COMDAT ??0MissionEvent@@QAE@ABV0@@Z
_TEXT	SEGMENT
__$EHRec$ = -12						; size = 12
_this$ = 8						; size = 4
___that$ = 12						; size = 4
??0MissionEvent@@QAE@ABV0@@Z PROC			; MissionEvent::MissionEvent, COMDAT
  00000	55		 push	 ebp
  00001	8b ec		 mov	 ebp, esp
  00003	6a ff		 push	 -1
  00005	68 00 00 00 00	 push	 __ehhandler$??0MissionEvent@@QAE@ABV0@@Z
  0000a	64 a1 00 00 00
	00		 mov	 eax, DWORD PTR fs:0
  00010	50		 push	 eax
  00011	53		 push	 ebx
  00012	56		 push	 esi
  00013	57		 push	 edi
  00014	a1 00 00 00 00	 mov	 eax, DWORD PTR ___security_cookie
  00019	33 c5		 xor	 eax, ebp
  0001b	50		 push	 eax
  0001c	8d 45 f4	 lea	 eax, DWORD PTR __$EHRec$[ebp]
  0001f	64 a3 00 00 00
	00		 mov	 DWORD PTR fs:0, eax
  00025	8b 5d 08	 mov	 ebx, DWORD PTR _this$[ebp]
  00028	8b 75 0c	 mov	 esi, DWORD PTR ___that$[ebp]
  0002b	c7 03 00 00 00
	00		 mov	 DWORD PTR [ebx], OFFSET ??_7MissionEvent@@6B@
  00031	8b 46 08	 mov	 eax, DWORD PTR [esi+8]
  00034	89 43 08	 mov	 DWORD PTR [ebx+8], eax
  00037	8b 4e 0c	 mov	 ecx, DWORD PTR [esi+12]
  0003a	89 4b 0c	 mov	 DWORD PTR [ebx+12], ecx
  0003d	dd 46 10	 fld	 QWORD PTR [esi+16]
  00040	dd 5b 10	 fstp	 QWORD PTR [ebx+16]
  00043	8d 46 24	 lea	 eax, DWORD PTR [esi+36]
  00046	dd 46 18	 fld	 QWORD PTR [esi+24]
  00049	50		 push	 eax
  0004a	dd 5b 18	 fstp	 QWORD PTR [ebx+24]
  0004d	8b 56 20	 mov	 edx, DWORD PTR [esi+32]
  00050	8d 4b 24	 lea	 ecx, DWORD PTR [ebx+36]
  00053	89 53 20	 mov	 DWORD PTR [ebx+32], edx
  00056	e8 00 00 00 00	 call	 ??0Text@@QAE@ABV0@@Z	; Text::Text
  0005b	8d 4e 2c	 lea	 ecx, DWORD PTR [esi+44]
  0005e	51		 push	 ecx
  0005f	8d 4b 2c	 lea	 ecx, DWORD PTR [ebx+44]
  00062	c7 45 fc 00 00
	00 00		 mov	 DWORD PTR __$EHRec$[ebp+8], 0
  00069	e8 00 00 00 00	 call	 ??0Text@@QAE@ABV0@@Z	; Text::Text
  0006e	8d 56 34	 lea	 edx, DWORD PTR [esi+52]
  00071	52		 push	 edx
  00072	8d 4b 34	 lea	 ecx, DWORD PTR [ebx+52]
  00075	c6 45 fc 01	 mov	 BYTE PTR __$EHRec$[ebp+8], 1
  00079	e8 00 00 00 00	 call	 ??0Text@@QAE@ABV0@@Z	; Text::Text
  0007e	8d 46 3c	 lea	 eax, DWORD PTR [esi+60]
  00081	50		 push	 eax
  00082	8d 4b 3c	 lea	 ecx, DWORD PTR [ebx+60]
  00085	c6 45 fc 02	 mov	 BYTE PTR __$EHRec$[ebp+8], 2
  00089	e8 00 00 00 00	 call	 ??0Text@@QAE@ABV0@@Z	; Text::Text
  0008e	8d 4e 44	 lea	 ecx, DWORD PTR [esi+68]
  00091	51		 push	 ecx
  00092	8d 4b 44	 lea	 ecx, DWORD PTR [ebx+68]
  00095	c6 45 fc 03	 mov	 BYTE PTR __$EHRec$[ebp+8], 3
  00099	e8 00 00 00 00	 call	 ??0Text@@QAE@ABV0@@Z	; Text::Text
  0009e	c6 45 fc 04	 mov	 BYTE PTR __$EHRec$[ebp+8], 4
  000a2	f3 0f 7e 46 4c	 movq	 xmm0, QWORD PTR [esi+76]
  000a7	66 0f d6 43 4c	 movq	 QWORD PTR [ebx+76], xmm0
  000ac	f3 0f 7e 46 54	 movq	 xmm0, QWORD PTR [esi+84]
  000b1	66 0f d6 43 54	 movq	 QWORD PTR [ebx+84], xmm0
  000b6	f3 0f 7e 46 5c	 movq	 xmm0, QWORD PTR [esi+92]
  000bb	66 0f d6 43 5c	 movq	 QWORD PTR [ebx+92], xmm0
  000c0	f3 0f 7e 46 64	 movq	 xmm0, QWORD PTR [esi+100]
  000c5	66 0f d6 43 64	 movq	 QWORD PTR [ebx+100], xmm0
  000ca	f3 0f 7e 46 6c	 movq	 xmm0, QWORD PTR [esi+108]
  000cf	66 0f d6 43 6c	 movq	 QWORD PTR [ebx+108], xmm0
  000d4	8b 56 74	 mov	 edx, DWORD PTR [esi+116]
  000d7	89 53 74	 mov	 DWORD PTR [ebx+116], edx
  000da	8b 46 78	 mov	 eax, DWORD PTR [esi+120]
  000dd	89 43 78	 mov	 DWORD PTR [ebx+120], eax
  000e0	f3 0f 7e 46 7c	 movq	 xmm0, QWORD PTR [esi+124]
  000e5	66 0f d6 43 7c	 movq	 QWORD PTR [ebx+124], xmm0
  000ea	8b 8e 84 00 00
	00		 mov	 ecx, DWORD PTR [esi+132]
  000f0	89 8b 84 00 00
	00		 mov	 DWORD PTR [ebx+132], ecx
  000f6	f3 0f 7e 86 88
	00 00 00	 movq	 xmm0, QWORD PTR [esi+136]
  000fe	66 0f d6 83 88
	00 00 00	 movq	 QWORD PTR [ebx+136], xmm0
  00106	f3 0f 7e 86 90
	00 00 00	 movq	 xmm0, QWORD PTR [esi+144]
  0010e	66 0f d6 83 90
	00 00 00	 movq	 QWORD PTR [ebx+144], xmm0
  00116	8b 96 98 00 00
	00		 mov	 edx, DWORD PTR [esi+152]
  0011c	8d 86 9c 00 00
	00		 lea	 eax, DWORD PTR [esi+156]
  00122	50		 push	 eax
  00123	8d 8b 9c 00 00
	00		 lea	 ecx, DWORD PTR [ebx+156]
  00129	89 93 98 00 00
	00		 mov	 DWORD PTR [ebx+152], edx
  0012f	e8 00 00 00 00	 call	 ??0Text@@QAE@ABV0@@Z	; Text::Text
  00134	8d 8e a4 00 00
	00		 lea	 ecx, DWORD PTR [esi+164]
  0013a	51		 push	 ecx
  0013b	8d 8b a4 00 00
	00		 lea	 ecx, DWORD PTR [ebx+164]
  00141	c6 45 fc 05	 mov	 BYTE PTR __$EHRec$[ebp+8], 5
  00145	e8 00 00 00 00	 call	 ??0Text@@QAE@ABV0@@Z	; Text::Text
  0014a	f3 0f 7e 86 ac
	00 00 00	 movq	 xmm0, QWORD PTR [esi+172]
  00152	66 0f d6 83 ac
	00 00 00	 movq	 QWORD PTR [ebx+172], xmm0
  0015a	f3 0f 7e 86 b4
	00 00 00	 movq	 xmm0, QWORD PTR [esi+180]
  00162	66 0f d6 83 b4
	00 00 00	 movq	 QWORD PTR [ebx+180], xmm0
  0016a	f3 0f 7e 86 bc
	00 00 00	 movq	 xmm0, QWORD PTR [esi+188]
  00172	66 0f d6 83 bc
	00 00 00	 movq	 QWORD PTR [ebx+188], xmm0
  0017a	f3 0f 7e 86 c4
	00 00 00	 movq	 xmm0, QWORD PTR [esi+196]
  00182	66 0f d6 83 c4
	00 00 00	 movq	 QWORD PTR [ebx+196], xmm0
  0018a	f3 0f 7e 86 cc
	00 00 00	 movq	 xmm0, QWORD PTR [esi+204]
  00192	66 0f d6 83 cc
	00 00 00	 movq	 QWORD PTR [ebx+204], xmm0
  0019a	8b 96 d4 00 00
	00		 mov	 edx, DWORD PTR [esi+212]
  001a0	89 93 d4 00 00
	00		 mov	 DWORD PTR [ebx+212], edx
  001a6	c7 83 d8 00 00
	00 00 00 00 00	 mov	 DWORD PTR [ebx+216], OFFSET ??_7Resource@@6B@
  001b0	8b 86 dc 00 00
	00		 mov	 eax, DWORD PTR [esi+220]
  001b6	89 83 dc 00 00
	00		 mov	 DWORD PTR [ebx+220], eax
  001bc	c7 83 d8 00 00
	00 00 00 00 00	 mov	 DWORD PTR [ebx+216], OFFSET ??_7Bitmap@@6B@
  001c6	8b 8e e0 00 00
	00		 mov	 ecx, DWORD PTR [esi+224]
  001cc	89 8b e0 00 00
	00		 mov	 DWORD PTR [ebx+224], ecx
  001d2	8b 96 e4 00 00
	00		 mov	 edx, DWORD PTR [esi+228]
  001d8	89 93 e4 00 00
	00		 mov	 DWORD PTR [ebx+228], edx
  001de	8b 86 e8 00 00
	00		 mov	 eax, DWORD PTR [esi+232]
  001e4	89 83 e8 00 00
	00		 mov	 DWORD PTR [ebx+232], eax
  001ea	8b 8e ec 00 00
	00		 mov	 ecx, DWORD PTR [esi+236]
  001f0	89 8b ec 00 00
	00		 mov	 DWORD PTR [ebx+236], ecx
  001f6	8a 96 f0 00 00
	00		 mov	 dl, BYTE PTR [esi+240]
  001fc	88 93 f0 00 00
	00		 mov	 BYTE PTR [ebx+240], dl
  00202	8a 86 f1 00 00
	00		 mov	 al, BYTE PTR [esi+241]
  00208	88 83 f1 00 00
	00		 mov	 BYTE PTR [ebx+241], al
  0020e	8a 8e f2 00 00
	00		 mov	 cl, BYTE PTR [esi+242]
  00214	88 8b f2 00 00
	00		 mov	 BYTE PTR [ebx+242], cl
  0021a	8b 96 f4 00 00
	00		 mov	 edx, DWORD PTR [esi+244]
  00220	89 93 f4 00 00
	00		 mov	 DWORD PTR [ebx+244], edx
  00226	8b 86 f8 00 00
	00		 mov	 eax, DWORD PTR [esi+248]
  0022c	8b 55 0c	 mov	 edx, DWORD PTR ___that$[ebp]
  0022f	89 83 f8 00 00
	00		 mov	 DWORD PTR [ebx+248], eax
  00235	8b 8e fc 00 00
	00		 mov	 ecx, DWORD PTR [esi+252]
  0023b	89 8b fc 00 00
	00		 mov	 DWORD PTR [ebx+252], ecx
  00241	81 c6 00 01 00
	00		 add	 esi, 256		; 00000100H
  00247	8d bb 00 01 00
	00		 lea	 edi, DWORD PTR [ebx+256]
  0024d	b9 10 00 00 00	 mov	 ecx, 16			; 00000010H
  00252	f3 a5		 rep movsd
  00254	8b 82 40 01 00
	00		 mov	 eax, DWORD PTR [edx+320]
  0025a	89 83 40 01 00
	00		 mov	 DWORD PTR [ebx+320], eax
  00260	8b c3		 mov	 eax, ebx
  00262	8b 4d f4	 mov	 ecx, DWORD PTR __$EHRec$[ebp]
  00265	64 89 0d 00 00
	00 00		 mov	 DWORD PTR fs:0, ecx
  0026c	59		 pop	 ecx
  0026d	5f		 pop	 edi
  0026e	5e		 pop	 esi
  0026f	5b		 pop	 ebx
  00270	8b e5		 mov	 esp, ebp
  00272	5d		 pop	 ebp
  00273	c2 08 00	 ret	 8
_TEXT	ENDS
;	COMDAT text$x
text$x	SEGMENT
__unwindfunclet$??0MissionEvent@@QAE@ABV0@@Z$0:
  00000	8b 4d 08	 mov	 ecx, DWORD PTR _this$[ebp]
  00003	83 c1 24	 add	 ecx, 36			; 00000024H
  00006	e9 00 00 00 00	 jmp	 ??1Text@@QAE@XZ		; Text::~Text
__unwindfunclet$??0MissionEvent@@QAE@ABV0@@Z$1:
  0000b	8b 4d 08	 mov	 ecx, DWORD PTR _this$[ebp]
  0000e	83 c1 2c	 add	 ecx, 44			; 0000002cH
  00011	e9 00 00 00 00	 jmp	 ??1Text@@QAE@XZ		; Text::~Text
__unwindfunclet$??0MissionEvent@@QAE@ABV0@@Z$2:
  00016	8b 4d 08	 mov	 ecx, DWORD PTR _this$[ebp]
  00019	83 c1 34	 add	 ecx, 52			; 00000034H
  0001c	e9 00 00 00 00	 jmp	 ??1Text@@QAE@XZ		; Text::~Text
__unwindfunclet$??0MissionEvent@@QAE@ABV0@@Z$3:
  00021	8b 4d 08	 mov	 ecx, DWORD PTR _this$[ebp]
  00024	83 c1 3c	 add	 ecx, 60			; 0000003cH
  00027	e9 00 00 00 00	 jmp	 ??1Text@@QAE@XZ		; Text::~Text
__unwindfunclet$??0MissionEvent@@QAE@ABV0@@Z$4:
  0002c	8b 4d 08	 mov	 ecx, DWORD PTR _this$[ebp]
  0002f	83 c1 44	 add	 ecx, 68			; 00000044H
  00032	e9 00 00 00 00	 jmp	 ??1Text@@QAE@XZ		; Text::~Text
__unwindfunclet$??0MissionEvent@@QAE@ABV0@@Z$5:
  00037	8b 4d 08	 mov	 ecx, DWORD PTR _this$[ebp]
  0003a	81 c1 9c 00 00
	00		 add	 ecx, 156		; 0000009cH
  00040	e9 00 00 00 00	 jmp	 ??1Text@@QAE@XZ		; Text::~Text
__ehhandler$??0MissionEvent@@QAE@ABV0@@Z:
  00045	8b 54 24 08	 mov	 edx, DWORD PTR [esp+8]
  00049	8d 42 0c	 lea	 eax, DWORD PTR [edx+12]
  0004c	8b 4a f0	 mov	 ecx, DWORD PTR [edx-16]
  0004f	33 c8		 xor	 ecx, eax
  00051	e8 00 00 00 00	 call	 @__security_check_cookie@4
  00056	b8 00 00 00 00	 mov	 eax, OFFSET __ehfuncinfo$??0MissionEvent@@QAE@ABV0@@Z
  0005b	e9 00 00 00 00	 jmp	 ___CxxFrameHandler3
text$x	ENDS
??0MissionEvent@@QAE@ABV0@@Z ENDP			; MissionEvent::MissionEvent
;	COMDAT xdata$x
; File c:\matrix games\source\stars45\combatgroup.h
xdata$x	SEGMENT
__unwindtable$?SetRegion@CombatGroup@@QAEXVText@@@Z DD 0ffffffffH
	DD	FLAT:__unwindfunclet$?SetRegion@CombatGroup@@QAEXVText@@@Z$0
__ehfuncinfo$?SetRegion@CombatGroup@@QAEXVText@@@Z DD 019930522H
	DD	01H
	DD	FLAT:__unwindtable$?SetRegion@CombatGroup@@QAEXVText@@@Z
	DD	2 DUP(00H)
	DD	2 DUP(00H)
	DD	00H
	DD	01H
; Function compile flags: /Ogtp
xdata$x	ENDS
;	COMDAT ?SetRegion@CombatGroup@@QAEXVText@@@Z
_TEXT	SEGMENT
__$EHRec$ = -12						; size = 12
_rgn$ = 8						; size = 8
?SetRegion@CombatGroup@@QAEXVText@@@Z PROC		; CombatGroup::SetRegion, COMDAT
; _this$ = ecx

; 136  : 	void           SetRegion(Text rgn)                 { region = rgn;      }

  00000	55		 push	 ebp
  00001	8b ec		 mov	 ebp, esp
  00003	6a ff		 push	 -1
  00005	68 00 00 00 00	 push	 __ehhandler$?SetRegion@CombatGroup@@QAEXVText@@@Z
  0000a	64 a1 00 00 00
	00		 mov	 eax, DWORD PTR fs:0
  00010	50		 push	 eax
  00011	a1 00 00 00 00	 mov	 eax, DWORD PTR ___security_cookie
  00016	33 c5		 xor	 eax, ebp
  00018	50		 push	 eax
  00019	8d 45 f4	 lea	 eax, DWORD PTR __$EHRec$[ebp]
  0001c	64 a3 00 00 00
	00		 mov	 DWORD PTR fs:0, eax
  00022	8d 45 08	 lea	 eax, DWORD PTR _rgn$[ebp]
  00025	50		 push	 eax
  00026	83 c1 4c	 add	 ecx, 76			; 0000004cH
  00029	c7 45 fc 00 00
	00 00		 mov	 DWORD PTR __$EHRec$[ebp+8], 0
  00030	e8 00 00 00 00	 call	 ??4Text@@QAEAAV0@ABV0@@Z ; Text::operator=
  00035	8d 4d 08	 lea	 ecx, DWORD PTR _rgn$[ebp]
  00038	c7 45 fc ff ff
	ff ff		 mov	 DWORD PTR __$EHRec$[ebp+8], -1
  0003f	e8 00 00 00 00	 call	 ??1Text@@QAE@XZ		; Text::~Text
  00044	8b 4d f4	 mov	 ecx, DWORD PTR __$EHRec$[ebp]
  00047	64 89 0d 00 00
	00 00		 mov	 DWORD PTR fs:0, ecx
  0004e	59		 pop	 ecx
  0004f	8b e5		 mov	 esp, ebp
  00051	5d		 pop	 ebp
  00052	c2 08 00	 ret	 8
_TEXT	ENDS
;	COMDAT text$x
text$x	SEGMENT
__unwindfunclet$?SetRegion@CombatGroup@@QAEXVText@@@Z$0:
  00000	8d 4d 08	 lea	 ecx, DWORD PTR _rgn$[ebp]
  00003	e9 00 00 00 00	 jmp	 ??1Text@@QAE@XZ		; Text::~Text
__ehhandler$?SetRegion@CombatGroup@@QAEXVText@@@Z:
  00008	8b 54 24 08	 mov	 edx, DWORD PTR [esp+8]
  0000c	8d 42 0c	 lea	 eax, DWORD PTR [edx+12]
  0000f	8b 4a fc	 mov	 ecx, DWORD PTR [edx-4]
  00012	33 c8		 xor	 ecx, eax
  00014	e8 00 00 00 00	 call	 @__security_check_cookie@4
  00019	b8 00 00 00 00	 mov	 eax, OFFSET __ehfuncinfo$?SetRegion@CombatGroup@@QAEXVText@@@Z
  0001e	e9 00 00 00 00	 jmp	 ___CxxFrameHandler3
text$x	ENDS
?SetRegion@CombatGroup@@QAEXVText@@@Z ENDP		; CombatGroup::SetRegion
; Function compile flags: /Ogtp
; File c:\matrix games\source\stars45\missionevent.h
;	COMDAT ?IsActive@MissionEvent@@QBE_NXZ
_TEXT	SEGMENT
?IsActive@MissionEvent@@QBE_NXZ PROC			; MissionEvent::IsActive, COMDAT
; _this$ = ecx

; 101  : 	bool                 IsActive()        const { return status == ACTIVE;   }

  00000	33 c0		 xor	 eax, eax
  00002	83 79 0c 01	 cmp	 DWORD PTR [ecx+12], 1
  00006	0f 94 c0	 sete	 al
  00009	c3		 ret	 0
?IsActive@MissionEvent@@QBE_NXZ ENDP			; MissionEvent::IsActive
; Function compile flags: /Ogtp
_TEXT	ENDS
;	COMDAT ?IsPending@MissionEvent@@QBE_NXZ
_TEXT	SEGMENT
?IsPending@MissionEvent@@QBE_NXZ PROC			; MissionEvent::IsPending, COMDAT
; _this$ = ecx

; 100  : 	bool                 IsPending()       const { return status == PENDING;  }

  00000	33 c0		 xor	 eax, eax
  00002	39 41 0c	 cmp	 DWORD PTR [ecx+12], eax
  00005	0f 94 c0	 sete	 al
  00008	c3		 ret	 0
?IsPending@MissionEvent@@QBE_NXZ ENDP			; MissionEvent::IsPending
; Function compile flags: /Ogtp
; File c:\matrix games\source\stars45\mission.h
_TEXT	ENDS
;	COMDAT ?SetProbes@MissionShip@@QAEXH@Z
_TEXT	SEGMENT
?SetProbes@MissionShip@@QAEXH@Z PROC			; MissionShip::SetProbes, COMDAT
; _this$ = eax
; _p$ = ecx

; 405  : 	void              SetProbes(int p)              { probes = p;        }

  00000	89 48 6c	 mov	 DWORD PTR [eax+108], ecx
  00003	c3		 ret	 0
?SetProbes@MissionShip@@QAEXH@Z ENDP			; MissionShip::SetProbes
; Function compile flags: /Ogtp
_TEXT	ENDS
;	COMDAT ?SetDecoys@MissionShip@@QAEXH@Z
_TEXT	SEGMENT
?SetDecoys@MissionShip@@QAEXH@Z PROC			; MissionShip::SetDecoys, COMDAT
; _this$ = eax
; _d$ = ecx

; 404  : 	void              SetDecoys(int d)              { decoys = d;        }

  00000	89 48 68	 mov	 DWORD PTR [eax+104], ecx
  00003	c3		 ret	 0
?SetDecoys@MissionShip@@QAEXH@Z ENDP			; MissionShip::SetDecoys
; Function compile flags: /Ogtp
_TEXT	ENDS
;	COMDAT ?GetSkin@MissionShip@@QBEPBVSkin@@XZ
_TEXT	SEGMENT
?GetSkin@MissionShip@@QBEPBVSkin@@XZ PROC		; MissionShip::GetSkin, COMDAT
; _this$ = eax

; 384  : 	const Skin*       GetSkin()               const { return skin;       }

  00000	8b 40 18	 mov	 eax, DWORD PTR [eax+24]
  00003	c3		 ret	 0
?GetSkin@MissionShip@@QBEPBVSkin@@XZ ENDP		; MissionShip::GetSkin
; Function compile flags: /Ogtp
_TEXT	ENDS
;	COMDAT ?SetZoneLock@MissionElement@@QAEXH@Z
_TEXT	SEGMENT
?SetZoneLock@MissionElement@@QAEXH@Z PROC		; MissionElement::SetZoneLock, COMDAT
; _this$ = eax
; _z$ = ecx

; 286  : 	void              SetZoneLock(int z)            { zone_lock = z;     }

  00000	89 48 58	 mov	 DWORD PTR [eax+88], ecx
  00003	c3		 ret	 0
?SetZoneLock@MissionElement@@QAEXH@Z ENDP		; MissionElement::SetZoneLock
; Function compile flags: /Ogtp
_TEXT	ENDS
;	COMDAT ?SetRogue@MissionElement@@QAEX_N@Z
_TEXT	SEGMENT
?SetRogue@MissionElement@@QAEX_N@Z PROC			; MissionElement::SetRogue, COMDAT
; _this$ = eax
; _r$ = ecx

; 276  : 	void              SetRogue(bool r)              { rogue = r;         }

  00000	88 48 66	 mov	 BYTE PTR [eax+102], cl
  00003	c3		 ret	 0
?SetRogue@MissionElement@@QAEX_N@Z ENDP			; MissionElement::SetRogue
; Function compile flags: /Ogtp
_TEXT	ENDS
;	COMDAT ?SetPath@MissionElement@@QAEXPBD@Z
_TEXT	SEGMENT
?SetPath@MissionElement@@QAEXPBD@Z PROC			; MissionElement::SetPath, COMDAT
; _this$ = ecx
; _p$ = eax

; 264  : 	void              SetPath(const char* p)        { path = p;          }

  00000	50		 push	 eax
  00001	83 c1 24	 add	 ecx, 36			; 00000024H
  00004	e8 00 00 00 00	 call	 ??4Text@@QAEAAV0@PBD@Z	; Text::operator=
  00009	c3		 ret	 0
?SetPath@MissionElement@@QAEXPBD@Z ENDP			; MissionElement::SetPath
; Function compile flags: /Ogtp
_TEXT	ENDS
;	COMDAT ?IsInvulnerable@MissionElement@@QBE_NXZ
_TEXT	SEGMENT
?IsInvulnerable@MissionElement@@QBE_NXZ PROC		; MissionElement::IsInvulnerable, COMDAT
; _this$ = eax

; 240  : 	bool              IsInvulnerable() const { return invulnerable; }

  00000	8a 40 67	 mov	 al, BYTE PTR [eax+103]
  00003	c3		 ret	 0
?IsInvulnerable@MissionElement@@QBE_NXZ ENDP		; MissionElement::IsInvulnerable
; Function compile flags: /Ogtp
_TEXT	ENDS
;	COMDAT ?IsRogue@MissionElement@@QBE_NXZ
_TEXT	SEGMENT
?IsRogue@MissionElement@@QBE_NXZ PROC			; MissionElement::IsRogue, COMDAT
; _this$ = eax

; 239  : 	bool              IsRogue()      const { return rogue;         }

  00000	8a 40 66	 mov	 al, BYTE PTR [eax+102]
  00003	c3		 ret	 0
?IsRogue@MissionElement@@QBE_NXZ ENDP			; MissionElement::IsRogue
; Function compile flags: /Ogtp
_TEXT	ENDS
;	COMDAT ?Stardate@Mission@@QBENXZ
_TEXT	SEGMENT
?Stardate@Mission@@QBENXZ PROC				; Mission::Stardate, COMDAT
; _this$ = eax

; 108  : 	double               Stardate()      const { return stardate;     }

  00000	f2 0f 10 80 b0
	00 00 00	 movsd	 xmm0, QWORD PTR [eax+176]
  00008	c3		 ret	 0
?Stardate@Mission@@QBENXZ ENDP				; Mission::Stardate
; Function compile flags: /Ogtp
; File c:\matrix games\source\stars45\explosion.h
_TEXT	ENDS
;	COMDAT ?TYPENAME@Explosion@@SAPBDXZ
_TEXT	SEGMENT
?TYPENAME@Explosion@@SAPBDXZ PROC			; Explosion::TYPENAME, COMDAT

; 35   : 	static const char* TYPENAME() { return "Explosion"; }

  00000	b8 00 00 00 00	 mov	 eax, OFFSET ??_C@_09HGNANIIM@Explosion?$AA@
  00005	c3		 ret	 0
?TYPENAME@Explosion@@SAPBDXZ ENDP			; Explosion::TYPENAME
; Function compile flags: /Ogtp
; File c:\matrix games\source\stars45\drone.h
_TEXT	ENDS
;	COMDAT ?SetLife@Drone@@QAEXH@Z
_TEXT	SEGMENT
?SetLife@Drone@@QAEXH@Z PROC				; Drone::SetLife, COMDAT
; _this$ = eax

; 59   : 	void        SetLife(int seconds) { life = seconds; }

  00000	0f 57 c0	 xorps	 xmm0, xmm0
  00003	f2 0f 11 80 a8
	01 00 00	 movsd	 QWORD PTR [eax+424], xmm0
  0000b	c3		 ret	 0
?SetLife@Drone@@QAEXH@Z ENDP				; Drone::SetLife
; Function compile flags: /Ogtp
_TEXT	ENDS
;	COMDAT ?TYPENAME@Drone@@SAPBDXZ
_TEXT	SEGMENT
?TYPENAME@Drone@@SAPBDXZ PROC				; Drone::TYPENAME, COMDAT

; 37   : 	static const char* TYPENAME() { return "Drone"; }

  00000	b8 00 00 00 00	 mov	 eax, OFFSET ??_C@_05GAGADLBE@Drone?$AA@
  00005	c3		 ret	 0
?TYPENAME@Drone@@SAPBDXZ ENDP				; Drone::TYPENAME
; Function compile flags: /Ogtp
; File c:\matrix games\source\stars45\shot.h
_TEXT	ENDS
;	COMDAT ?SetHitTarget@Shot@@QAEX_N@Z
_TEXT	SEGMENT
?SetHitTarget@Shot@@QAEX_N@Z PROC			; Shot::SetHitTarget, COMDAT
; _this$ = eax

; 68   : 	void              SetHitTarget(bool h) { hit_target = h;    }

  00000	c6 80 0f 02 00
	00 01		 mov	 BYTE PTR [eax+527], 1
  00007	c3		 ret	 0
?SetHitTarget@Shot@@QAEX_N@Z ENDP			; Shot::SetHitTarget
; Function compile flags: /Ogtp
; File c:\matrix games\source\stars45\element.h
_TEXT	ENDS
;	COMDAT ?SetCount@Element@@QAEXH@Z
_TEXT	SEGMENT
?SetCount@Element@@QAEXH@Z PROC				; Element::SetCount, COMDAT
; _this$ = eax
; _n$ = ecx

; 134  : 	void              SetCount(int n)                  { count = n;         }

  00000	89 48 34	 mov	 DWORD PTR [eax+52], ecx
  00003	c3		 ret	 0
?SetCount@Element@@QAEXH@Z ENDP				; Element::SetCount
; Function compile flags: /Ogtp
_TEXT	ENDS
;	COMDAT ?GetCount@Element@@QBEHXZ
_TEXT	SEGMENT
?GetCount@Element@@QBEHXZ PROC				; Element::GetCount, COMDAT
; _this$ = eax

; 133  : 	int               GetCount()                 const { return count;      }

  00000	8b 40 34	 mov	 eax, DWORD PTR [eax+52]
  00003	c3		 ret	 0
?GetCount@Element@@QBEHXZ ENDP				; Element::GetCount
; Function compile flags: /Ogtp
_TEXT	ENDS
;	COMDAT ?GetSquadron@Element@@QBEABVText@@XZ
_TEXT	SEGMENT
?GetSquadron@Element@@QBEABVText@@XZ PROC		; Element::GetSquadron, COMDAT
; _this$ = eax

; 123  : 	const Text&       GetSquadron()              const { return squadron;   }

  00000	83 e8 80	 sub	 eax, -128		; ffffff80H
  00003	c3		 ret	 0
?GetSquadron@Element@@QBEABVText@@XZ ENDP		; Element::GetSquadron
; Function compile flags: /Ogtp
_TEXT	ENDS
;	COMDAT ?SetCommandAILevel@Element@@QAEXH@Z
_TEXT	SEGMENT
?SetCommandAILevel@Element@@QAEXH@Z PROC		; Element::SetCommandAILevel, COMDAT
; _this$ = eax
; _n$ = ecx

; 122  : 	void              SetCommandAILevel(int n)         { command_ai = n;    }

  00000	89 48 20	 mov	 DWORD PTR [eax+32], ecx
  00003	c3		 ret	 0
?SetCommandAILevel@Element@@QAEXH@Z ENDP		; Element::SetCommandAILevel
; Function compile flags: /Ogtp
_TEXT	ENDS
;	COMDAT ?GetCommandAILevel@Element@@QBEHXZ
_TEXT	SEGMENT
?GetCommandAILevel@Element@@QBEHXZ PROC			; Element::GetCommandAILevel, COMDAT
; _this$ = eax

; 121  : 	int               GetCommandAILevel()        const { return command_ai; }

  00000	8b 40 20	 mov	 eax, DWORD PTR [eax+32]
  00003	c3		 ret	 0
?GetCommandAILevel@Element@@QBEHXZ ENDP			; Element::GetCommandAILevel
; Function compile flags: /Ogtp
_TEXT	ENDS
;	COMDAT ?GetAssignment@Element@@QBEPAV1@XZ
_TEXT	SEGMENT
?GetAssignment@Element@@QBEPAV1@XZ PROC			; Element::GetAssignment, COMDAT
; _this$ = eax

; 115  : 	Element*          GetAssignment()            const { return assignment; }

  00000	8b 40 78	 mov	 eax, DWORD PTR [eax+120]
  00003	c3		 ret	 0
?GetAssignment@Element@@QBEPAV1@XZ ENDP			; Element::GetAssignment
; Function compile flags: /Ogtp
_TEXT	ENDS
;	COMDAT ?SetPlayable@Element@@QAEX_N@Z
_TEXT	SEGMENT
?SetPlayable@Element@@QAEX_N@Z PROC			; Element::SetPlayable, COMDAT
; _this$ = eax
; _p$ = ecx

; 78   : 	void              SetPlayable(bool p)     { playable = p;            }

  00000	88 88 a1 00 00
	00		 mov	 BYTE PTR [eax+161], cl
  00006	c3		 ret	 0
?SetPlayable@Element@@QAEX_N@Z ENDP			; Element::SetPlayable
; Function compile flags: /Ogtp
_TEXT	ENDS
;	COMDAT ?SetRogue@Element@@QAEX_N@Z
_TEXT	SEGMENT
?SetRogue@Element@@QAEX_N@Z PROC			; Element::SetRogue, COMDAT
; _this$ = eax
; _r$ = ecx

; 77   : 	void              SetRogue(bool r)        { rogue = r;               }

  00000	88 88 a0 00 00
	00		 mov	 BYTE PTR [eax+160], cl
  00006	c3		 ret	 0
?SetRogue@Element@@QAEX_N@Z ENDP			; Element::SetRogue
; Function compile flags: /Ogtp
_TEXT	ENDS
;	COMDAT ?IsPlayable@Element@@QBE_NXZ
_TEXT	SEGMENT
?IsPlayable@Element@@QBE_NXZ PROC			; Element::IsPlayable, COMDAT
; _this$ = eax

; 74   : 	bool              IsPlayable()      const { return playable;         }

  00000	8a 80 a1 00 00
	00		 mov	 al, BYTE PTR [eax+161]
  00006	c3		 ret	 0
?IsPlayable@Element@@QBE_NXZ ENDP			; Element::IsPlayable
; Function compile flags: /Ogtp
_TEXT	ENDS
;	COMDAT ?IsRogue@Element@@QBE_NXZ
_TEXT	SEGMENT
?IsRogue@Element@@QBE_NXZ PROC				; Element::IsRogue, COMDAT
; _this$ = eax

; 73   : 	bool              IsRogue()         const { return rogue;            }

  00000	8a 80 a0 00 00
	00		 mov	 al, BYTE PTR [eax+160]
  00006	c3		 ret	 0
?IsRogue@Element@@QBE_NXZ ENDP				; Element::IsRogue
; Function compile flags: /Ogtp
_TEXT	ENDS
;	COMDAT ?SetPlayer@Element@@QAEXH@Z
_TEXT	SEGMENT
?SetPlayer@Element@@QAEXH@Z PROC			; Element::SetPlayer, COMDAT
; _this$ = eax
; _p$ = ecx

; 51   : 	void              SetPlayer(int p)        { player = p;              }

  00000	89 48 1c	 mov	 DWORD PTR [eax+28], ecx
  00003	c3		 ret	 0
?SetPlayer@Element@@QAEXH@Z ENDP			; Element::SetPlayer
; Function compile flags: /Ogtp
_TEXT	ENDS
;	COMDAT ?Player@Element@@QBEHXZ
_TEXT	SEGMENT
?Player@Element@@QBEHXZ PROC				; Element::Player, COMDAT
; _this$ = eax

; 50   : 	int               Player()          const { return player;           }

  00000	8b 40 1c	 mov	 eax, DWORD PTR [eax+28]
  00003	c3		 ret	 0
?Player@Element@@QBEHXZ ENDP				; Element::Player
; Function compile flags: /Ogtp
; File c:\matrix games\source\stars45\ship.h
_TEXT	ENDS
;	COMDAT ?RespawnLoc@Ship@@QBEABUPoint@@XZ
_TEXT	SEGMENT
?RespawnLoc@Ship@@QBEABUPoint@@XZ PROC			; Ship::RespawnLoc, COMDAT
; _this$ = eax

; 374  : 	const Point&      RespawnLoc()      const    { return respawn_loc;   }

  00000	05 80 04 00 00	 add	 eax, 1152		; 00000480H
  00005	c3		 ret	 0
?RespawnLoc@Ship@@QBEABUPoint@@XZ ENDP			; Ship::RespawnLoc
; Function compile flags: /Ogtp
_TEXT	ENDS
;	COMDAT ?UseSkin@Ship@@QAEXPBVSkin@@@Z
_TEXT	SEGMENT
?UseSkin@Ship@@QAEXPBVSkin@@@Z PROC			; Ship::UseSkin, COMDAT
; _this$ = eax
; _s$ = ecx

; 367  : 	void              UseSkin(const Skin* s)     { skin = s;             }

  00000	89 88 2c 03 00
	00		 mov	 DWORD PTR [eax+812], ecx
  00006	c3		 ret	 0
?UseSkin@Ship@@QAEXPBVSkin@@@Z ENDP			; Ship::UseSkin
; Function compile flags: /Ogtp
_TEXT	ENDS
;	COMDAT ?Registry@Ship@@QBEPBDXZ
_TEXT	SEGMENT
?Registry@Ship@@QBEPBDXZ PROC				; Ship::Registry, COMDAT
; _this$ = eax

; 338  : 	const char*       Registry()        const    { return regnum;        }

  00000	05 f0 01 00 00	 add	 eax, 496		; 000001f0H
  00005	c3		 ret	 0
?Registry@Ship@@QBEPBDXZ ENDP				; Ship::Registry
; Function compile flags: /Ogtp
_TEXT	ENDS
;	COMDAT ?GetCarrier@Ship@@QBEPAV1@XZ
_TEXT	SEGMENT
?GetCarrier@Ship@@QBEPAV1@XZ PROC			; Ship::GetCarrier, COMDAT
; _this$ = eax

; 186  : 	Ship*             GetCarrier()       const { return carrier;       }

  00000	8b 80 2c 04 00
	00		 mov	 eax, DWORD PTR [eax+1068]
  00006	c3		 ret	 0
?GetCarrier@Ship@@QBEPAV1@XZ ENDP			; Ship::GetCarrier
; Function compile flags: /Ogtp
_TEXT	ENDS
;	COMDAT ?SetInvulnerable@Ship@@QAEX_N@Z
_TEXT	SEGMENT
?SetInvulnerable@Ship@@QAEX_N@Z PROC			; Ship::SetInvulnerable, COMDAT
; _this$ = eax
; _n$ = ecx

; 164  : 	void              SetInvulnerable(bool n)          { invulnerable = n;         }

  00000	88 88 22 04 00
	00		 mov	 BYTE PTR [eax+1058], cl
  00006	c3		 ret	 0
?SetInvulnerable@Ship@@QAEX_N@Z ENDP			; Ship::SetInvulnerable
; Function compile flags: /Ogtp
_TEXT	ENDS
;	COMDAT ?SetAIMode@Ship@@QAEXH@Z
_TEXT	SEGMENT
_n$ = 8							; size = 4
?SetAIMode@Ship@@QAEXH@Z PROC				; Ship::SetAIMode, COMDAT
; _this$ = eax

; 154  : 	void              SetAIMode(int n)                 { ai_mode = (BYTE) n; }

  00000	55		 push	 ebp
  00001	8b ec		 mov	 ebp, esp
  00003	8a 4d 08	 mov	 cl, BYTE PTR _n$[ebp]
  00006	88 88 14 04 00
	00		 mov	 BYTE PTR [eax+1044], cl
  0000c	5d		 pop	 ebp
  0000d	c2 04 00	 ret	 4
?SetAIMode@Ship@@QAEXH@Z ENDP				; Ship::SetAIMode
; Function compile flags: /Ogtp
; File c:\matrix games\source\stars45\starsystem.h
_TEXT	ENDS
;	COMDAT ?Links@OrbitalRegion@@QAEAAV?$List@VText@@@@XZ
_TEXT	SEGMENT
?Links@OrbitalRegion@@QAEAAV?$List@VText@@@@XZ PROC	; OrbitalRegion::Links, COMDAT
; _this$ = eax

; 312  : 	List<Text>&       Links()                 { return links;         }

  00000	05 14 01 00 00	 add	 eax, 276		; 00000114H
  00005	c3		 ret	 0
?Links@OrbitalRegion@@QAEAAV?$List@VText@@@@XZ ENDP	; OrbitalRegion::Links
; Function compile flags: /Ogtp
_TEXT	ENDS
;	COMDAT ?Asteroids@OrbitalRegion@@QBEHXZ
_TEXT	SEGMENT
?Asteroids@OrbitalRegion@@QBEHXZ PROC			; OrbitalRegion::Asteroids, COMDAT
; _this$ = eax

; 311  : 	int               Asteroids()       const { return asteroids;     }

  00000	8b 80 10 01 00
	00		 mov	 eax, DWORD PTR [eax+272]
  00006	c3		 ret	 0
?Asteroids@OrbitalRegion@@QBEHXZ ENDP			; OrbitalRegion::Asteroids
; Function compile flags: /Ogtp
_TEXT	ENDS
;	COMDAT ?System@Orbital@@QBEPAVStarSystem@@XZ
_TEXT	SEGMENT
?System@Orbital@@QBEPAVStarSystem@@XZ PROC		; Orbital::System, COMDAT
; _this$ = eax

; 218  : 	StarSystem*       System()       const { return system;     }

  00000	8b 80 e8 00 00
	00		 mov	 eax, DWORD PTR [eax+232]
  00006	c3		 ret	 0
?System@Orbital@@QBEPAVStarSystem@@XZ ENDP		; Orbital::System
; Function compile flags: /Ogtp
_TEXT	ENDS
;	COMDAT ?NumDust@StarSystem@@QBEHXZ
_TEXT	SEGMENT
?NumDust@StarSystem@@QBEHXZ PROC			; StarSystem::NumDust, COMDAT
; _this$ = eax

; 68   : 	int               NumDust()      const { return sky_dust;  }

  00000	8b 80 98 00 00
	00		 mov	 eax, DWORD PTR [eax+152]
  00006	c3		 ret	 0
?NumDust@StarSystem@@QBEHXZ ENDP			; StarSystem::NumDust
; Function compile flags: /Ogtp
; File c:\matrix games\source\ngenex\solid.h
_TEXT	ENDS
;	COMDAT ??8Model@@QBEHABV0@@Z
_TEXT	SEGMENT
_that$ = 8						; size = 4
??8Model@@QBEHABV0@@Z PROC				; Model::operator==, COMDAT
; _this$ = ecx

; 121  : 	int operator == (const Model& that) const { return this == &that; }

  00000	55		 push	 ebp
  00001	8b ec		 mov	 ebp, esp
  00003	33 c0		 xor	 eax, eax
  00005	3b 4d 08	 cmp	 ecx, DWORD PTR _that$[ebp]
  00008	0f 94 c0	 sete	 al
  0000b	5d		 pop	 ebp
  0000c	c2 04 00	 ret	 4
??8Model@@QBEHABV0@@Z ENDP				; Model::operator==
; Function compile flags: /Ogtp
; File c:\matrix games\source\stars45\starshatter.h
_TEXT	ENDS
;	COMDAT ?Dust@Starshatter@@QAEHXZ
_TEXT	SEGMENT
?Dust@Starshatter@@QAEHXZ PROC				; Starshatter::Dust, COMDAT
; _this$ = eax

; 105  : 	int               Dust()               { return dust;          }

  00000	8b 80 e8 a5 00
	00		 mov	 eax, DWORD PTR [eax+42472]
  00006	c3		 ret	 0
?Dust@Starshatter@@QAEHXZ ENDP				; Starshatter::Dust
; Function compile flags: /Ogtp
; File c:\matrix games\source\ngenex\game.h
_TEXT	ENDS
;	COMDAT ?GetMaxFrameLength@Game@@SANXZ
_TEXT	SEGMENT
?GetMaxFrameLength@Game@@SANXZ PROC			; Game::GetMaxFrameLength, COMDAT

; 100  : 	static double     GetMaxFrameLength()               { return max_frame_length;    }

  00000	f2 0f 10 05 00
	00 00 00	 movsd	 xmm0, QWORD PTR ?max_frame_length@Game@@1NA
  00008	c3		 ret	 0
?GetMaxFrameLength@Game@@SANXZ ENDP			; Game::GetMaxFrameLength
; Function compile flags: /Ogtp
; File c:\matrix games\source\stars45\simobject.h
_TEXT	ENDS
;	COMDAT ?TYPENAME@SimObserver@@SAPBDXZ
_TEXT	SEGMENT
?TYPENAME@SimObserver@@SAPBDXZ PROC			; SimObserver::TYPENAME, COMDAT

; 81   : 	static const char* TYPENAME() { return "SimObserver"; }

  00000	b8 00 00 00 00	 mov	 eax, OFFSET ??_C@_0M@EIEAPHAO@SimObserver?$AA@
  00005	c3		 ret	 0
?TYPENAME@SimObserver@@SAPBDXZ ENDP			; SimObserver::TYPENAME
; Function compile flags: /Ogtp
; File c:\matrix games\source\stars45\simevent.h
_TEXT	ENDS
;	COMDAT ?AddCommandPoints@ShipStats@@QAEXH@Z
_TEXT	SEGMENT
?AddCommandPoints@ShipStats@@QAEXH@Z PROC		; ShipStats::AddCommandPoints, COMDAT
; _this$ = eax
; _p$ = ecx

; 132  : 	void           AddCommandPoints(int p) { cmd_points += p;      }

  00000	01 48 5c	 add	 DWORD PTR [eax+92], ecx
  00003	c3		 ret	 0
?AddCommandPoints@ShipStats@@QAEXH@Z ENDP		; ShipStats::AddCommandPoints
; Function compile flags: /Ogtp
_TEXT	ENDS
;	COMDAT ?SetShipClass@ShipStats@@QAEXH@Z
_TEXT	SEGMENT
?SetShipClass@ShipStats@@QAEXH@Z PROC			; ShipStats::SetShipClass, COMDAT
; _this$ = eax
; _c$ = ecx

; 117  : 	void           SetShipClass(int c)     { ship_class = c;       }

  00000	89 48 30	 mov	 DWORD PTR [eax+48], ecx
  00003	c3		 ret	 0
?SetShipClass@ShipStats@@QAEXH@Z ENDP			; ShipStats::SetShipClass
; Function compile flags: /Ogtp
_TEXT	ENDS
;	COMDAT ?IsPlayer@ShipStats@@QBE_NXZ
_TEXT	SEGMENT
?IsPlayer@ShipStats@@QBE_NXZ PROC			; ShipStats::IsPlayer, COMDAT
; _this$ = eax

; 109  : 	bool           IsPlayer()        const { return player;        }

  00000	8a 40 28	 mov	 al, BYTE PTR [eax+40]
  00003	c3		 ret	 0
?IsPlayer@ShipStats@@QBE_NXZ ENDP			; ShipStats::IsPlayer
; Function compile flags: /Ogtp
_TEXT	ENDS
;	COMDAT ?GetElementIndex@ShipStats@@QBEHXZ
_TEXT	SEGMENT
?GetElementIndex@ShipStats@@QBEHXZ PROC			; ShipStats::GetElementIndex, COMDAT
; _this$ = eax

; 94   : 	int            GetElementIndex() const { return elem_index;    }

  00000	8b 40 2c	 mov	 eax, DWORD PTR [eax+44]
  00003	c3		 ret	 0
?GetElementIndex@ShipStats@@QBEHXZ ENDP			; ShipStats::GetElementIndex
; Function compile flags: /Ogtp
_TEXT	ENDS
;	COMDAT ?GetCombatGroup@ShipStats@@QBEPAVCombatGroup@@XZ
_TEXT	SEGMENT
?GetCombatGroup@ShipStats@@QBEPAVCombatGroup@@XZ PROC	; ShipStats::GetCombatGroup, COMDAT
; _this$ = eax

; 92   : 	CombatGroup*   GetCombatGroup()  const { return combat_group;  }

  00000	8b 40 20	 mov	 eax, DWORD PTR [eax+32]
  00003	c3		 ret	 0
?GetCombatGroup@ShipStats@@QBEPAVCombatGroup@@XZ ENDP	; ShipStats::GetCombatGroup
; Function compile flags: /Ogtp
; File c:\matrix games\source\stars45\sim.h
_TEXT	ENDS
;	COMDAT ?GetPlayerShip@SimRegion@@QAEPAVShip@@XZ
_TEXT	SEGMENT
?GetPlayerShip@SimRegion@@QAEPAVShip@@XZ PROC		; SimRegion::GetPlayerShip, COMDAT
; _this$ = eax

; 238  : 	Ship*                GetPlayerShip() { return player_ship; }

  00000	8b 40 44	 mov	 eax, DWORD PTR [eax+68]
  00003	c3		 ret	 0
?GetPlayerShip@SimRegion@@QAEPAVShip@@XZ ENDP		; SimRegion::GetPlayerShip
; Function compile flags: /Ogtp
_TEXT	ENDS
;	COMDAT ?IsTestMode@Sim@@QBE_NXZ
_TEXT	SEGMENT
?IsTestMode@Sim@@QBE_NXZ PROC				; Sim::IsTestMode, COMDAT
; _this$ = eax

; 150  : 	bool                 IsTestMode()   const { return test_mode;        }

  00000	8a 80 bc 00 00
	00		 mov	 al, BYTE PTR [eax+188]
  00006	c3		 ret	 0
?IsTestMode@Sim@@QBE_NXZ ENDP				; Sim::IsTestMode
; Function compile flags: /Ogtp
; File c:\matrix games\source\ngenex\physical.h
_TEXT	ENDS
;	COMDAT ?Yaw@Physical@@QBENXZ
_TEXT	SEGMENT
?Yaw@Physical@@QBENXZ PROC				; Physical::Yaw, COMDAT
; _this$ = eax

; 95   : 	double            Yaw()       const { return yaw;        }

  00000	f3 0f 10 80 0c
	01 00 00	 movss	 xmm0, DWORD PTR [eax+268]
  00008	0f 5a c0	 cvtps2pd xmm0, xmm0
  0000b	c3		 ret	 0
?Yaw@Physical@@QBENXZ ENDP				; Physical::Yaw
; Function compile flags: /Ogtp
_TEXT	ENDS
;	COMDAT ?Pitch@Physical@@QBENXZ
_TEXT	SEGMENT
?Pitch@Physical@@QBENXZ PROC				; Physical::Pitch, COMDAT
; _this$ = eax

; 94   : 	double            Pitch()     const { return pitch;      }

  00000	f3 0f 10 80 08
	01 00 00	 movss	 xmm0, DWORD PTR [eax+264]
  00008	0f 5a c0	 cvtps2pd xmm0, xmm0
  0000b	c3		 ret	 0
?Pitch@Physical@@QBENXZ ENDP				; Physical::Pitch
; Function compile flags: /Ogtp
_TEXT	ENDS
;	COMDAT ?Roll@Physical@@QBENXZ
_TEXT	SEGMENT
?Roll@Physical@@QBENXZ PROC				; Physical::Roll, COMDAT
; _this$ = eax

; 93   : 	double            Roll()      const { return roll;       }

  00000	f3 0f 10 80 04
	01 00 00	 movss	 xmm0, DWORD PTR [eax+260]
  00008	0f 5a c0	 cvtps2pd xmm0, xmm0
  0000b	c3		 ret	 0
?Roll@Physical@@QBENXZ ENDP				; Physical::Roll
; Function compile flags: /Ogtp
; File c:\matrix games\source\ngenex\universe.h
_TEXT	ENDS
;	COMDAT ?ExecFrame@Universe@@UAEXN@Z
_TEXT	SEGMENT
_seconds$ = 8						; size = 8
?ExecFrame@Universe@@UAEXN@Z PROC			; Universe::ExecFrame, COMDAT
; _this$ = ecx

; 28   : 	virtual void   ExecFrame(double seconds) { }

  00000	c2 08 00	 ret	 8
?ExecFrame@Universe@@UAEXN@Z ENDP			; Universe::ExecFrame
; Function compile flags: /Ogtp
_TEXT	ENDS
;	COMDAT ??1Universe@@UAE@XZ
_TEXT	SEGMENT
??1Universe@@UAE@XZ PROC				; Universe::~Universe, COMDAT
; _this$ = ecx

; 26   : 	virtual ~Universe()  { }

  00000	c7 01 00 00 00
	00		 mov	 DWORD PTR [ecx], OFFSET ??_7Universe@@6B@
  00006	c3		 ret	 0
??1Universe@@UAE@XZ ENDP				; Universe::~Universe
; Function compile flags: /Ogtp
_TEXT	ENDS
;	COMDAT ??0Universe@@QAE@XZ
_TEXT	SEGMENT
??0Universe@@QAE@XZ PROC				; Universe::Universe, COMDAT
; _this$ = eax

; 25   : 	Universe()           { }

  00000	c7 00 00 00 00
	00		 mov	 DWORD PTR [eax], OFFSET ??_7Universe@@6B@
  00006	c3		 ret	 0
??0Universe@@QAE@XZ ENDP				; Universe::Universe
; Function compile flags: /Ogtp
; File c:\matrix games\source\foundationex\list.inl
;	COMDAT ?check@?$List@VAsteroid@@@@ABE_NAAH@Z
_TEXT	SEGMENT
?check@?$List@VAsteroid@@@@ABE_NAAH@Z PROC		; List<Asteroid>::check, COMDAT
; _this$ = esi
; _index$ = edi

; 65   :    if (index < 0) {

  00000	8b 07		 mov	 eax, DWORD PTR [edi]
  00002	85 c0		 test	 eax, eax
  00004	79 1c		 jns	 SHORT $LN3@check

; 66   :       Print("Bounds error in List(%08x) T=%s index=%d min=0\n", (int)this, T::TYPENAME(), index);

  00006	50		 push	 eax
  00007	68 00 00 00 00	 push	 OFFSET ??_C@_09NMLPCCMA@SimObject?$AA@
  0000c	56		 push	 esi
  0000d	68 00 00 00 00	 push	 OFFSET ??_C@_0DA@HIKLCBIP@Bounds?5error?5in?5List?$CI?$CF08x?$CJ?5T?$DN?$CFs?5@
  00012	e8 00 00 00 00	 call	 ?Print@@YAXPBDZZ	; Print
  00017	83 c4 10	 add	 esp, 16			; 00000010H

; 67   :       index = 0;

  0001a	c7 07 00 00 00
	00		 mov	 DWORD PTR [edi], 0
  00020	eb 26		 jmp	 SHORT $LN12@check
$LN3@check:

; 68   :    }
; 69   : 
; 70   :    else if (index >= items) {

  00022	8b 0e		 mov	 ecx, DWORD PTR [esi]
  00024	3b c1		 cmp	 eax, ecx
  00026	7c 1b		 jl	 SHORT $LN1@check

; 71   :       Print("Bounds error in List(%08x) T=%s index=%d max=%d\n", (int)this, T::TYPENAME(), index, items-1);

  00028	49		 dec	 ecx
  00029	51		 push	 ecx
  0002a	50		 push	 eax
  0002b	68 00 00 00 00	 push	 OFFSET ??_C@_09NMLPCCMA@SimObject?$AA@
  00030	56		 push	 esi
  00031	68 00 00 00 00	 push	 OFFSET ??_C@_0DB@EEHODDHM@Bounds?5error?5in?5List?$CI?$CF08x?$CJ?5T?$DN?$CFs?5@
  00036	e8 00 00 00 00	 call	 ?Print@@YAXPBDZZ	; Print

; 72   :       index = items-1;

  0003b	8b 06		 mov	 eax, DWORD PTR [esi]
  0003d	83 c4 14	 add	 esp, 20			; 00000014H
  00040	48		 dec	 eax
  00041	89 07		 mov	 DWORD PTR [edi], eax
$LN1@check:

; 73   :    }
; 74   : 
; 75   :    return (index >= 0 && index < items);

  00043	83 3f 00	 cmp	 DWORD PTR [edi], 0
  00046	7c 0c		 jl	 SHORT $LN6@check
$LN12@check:
  00048	8b 0f		 mov	 ecx, DWORD PTR [edi]
  0004a	3b 0e		 cmp	 ecx, DWORD PTR [esi]
  0004c	7d 06		 jge	 SHORT $LN6@check
  0004e	b8 01 00 00 00	 mov	 eax, 1

; 76   : }

  00053	c3		 ret	 0
$LN6@check:

; 73   :    }
; 74   : 
; 75   :    return (index >= 0 && index < items);

  00054	33 c0		 xor	 eax, eax

; 76   : }

  00056	c3		 ret	 0
?check@?$List@VAsteroid@@@@ABE_NAAH@Z ENDP		; List<Asteroid>::check
; Function compile flags: /Ogtp
_TEXT	ENDS
;	COMDAT ?check@?$List@VDebris@@@@ABE_NAAH@Z
_TEXT	SEGMENT
?check@?$List@VDebris@@@@ABE_NAAH@Z PROC		; List<Debris>::check, COMDAT
; _this$ = esi
; _index$ = edi

; 65   :    if (index < 0) {

  00000	8b 07		 mov	 eax, DWORD PTR [edi]
  00002	85 c0		 test	 eax, eax
  00004	79 1c		 jns	 SHORT $LN3@check@2

; 66   :       Print("Bounds error in List(%08x) T=%s index=%d min=0\n", (int)this, T::TYPENAME(), index);

  00006	50		 push	 eax
  00007	68 00 00 00 00	 push	 OFFSET ??_C@_09NMLPCCMA@SimObject?$AA@
  0000c	56		 push	 esi
  0000d	68 00 00 00 00	 push	 OFFSET ??_C@_0DA@HIKLCBIP@Bounds?5error?5in?5List?$CI?$CF08x?$CJ?5T?$DN?$CFs?5@
  00012	e8 00 00 00 00	 call	 ?Print@@YAXPBDZZ	; Print
  00017	83 c4 10	 add	 esp, 16			; 00000010H

; 67   :       index = 0;

  0001a	c7 07 00 00 00
	00		 mov	 DWORD PTR [edi], 0
  00020	eb 26		 jmp	 SHORT $LN12@check@2
$LN3@check@2:

; 68   :    }
; 69   : 
; 70   :    else if (index >= items) {

  00022	8b 0e		 mov	 ecx, DWORD PTR [esi]
  00024	3b c1		 cmp	 eax, ecx
  00026	7c 1b		 jl	 SHORT $LN1@check@2

; 71   :       Print("Bounds error in List(%08x) T=%s index=%d max=%d\n", (int)this, T::TYPENAME(), index, items-1);

  00028	49		 dec	 ecx
  00029	51		 push	 ecx
  0002a	50		 push	 eax
  0002b	68 00 00 00 00	 push	 OFFSET ??_C@_09NMLPCCMA@SimObject?$AA@
  00030	56		 push	 esi
  00031	68 00 00 00 00	 push	 OFFSET ??_C@_0DB@EEHODDHM@Bounds?5error?5in?5List?$CI?$CF08x?$CJ?5T?$DN?$CFs?5@
  00036	e8 00 00 00 00	 call	 ?Print@@YAXPBDZZ	; Print

; 72   :       index = items-1;

  0003b	8b 06		 mov	 eax, DWORD PTR [esi]
  0003d	83 c4 14	 add	 esp, 20			; 00000014H
  00040	48		 dec	 eax
  00041	89 07		 mov	 DWORD PTR [edi], eax
$LN1@check@2:

; 73   :    }
; 74   : 
; 75   :    return (index >= 0 && index < items);

  00043	83 3f 00	 cmp	 DWORD PTR [edi], 0
  00046	7c 0c		 jl	 SHORT $LN6@check@2
$LN12@check@2:
  00048	8b 0f		 mov	 ecx, DWORD PTR [edi]
  0004a	3b 0e		 cmp	 ecx, DWORD PTR [esi]
  0004c	7d 06		 jge	 SHORT $LN6@check@2
  0004e	b8 01 00 00 00	 mov	 eax, 1

; 76   : }

  00053	c3		 ret	 0
$LN6@check@2:

; 73   :    }
; 74   : 
; 75   :    return (index >= 0 && index < items);

  00054	33 c0		 xor	 eax, eax

; 76   : }

  00056	c3		 ret	 0
?check@?$List@VDebris@@@@ABE_NAAH@Z ENDP		; List<Debris>::check
; Function compile flags: /Ogtp
_TEXT	ENDS
;	COMDAT ?check@?$List@VExplosion@@@@ABE_NAAH@Z
_TEXT	SEGMENT
?check@?$List@VExplosion@@@@ABE_NAAH@Z PROC		; List<Explosion>::check, COMDAT
; _this$ = esi
; _index$ = edi

; 65   :    if (index < 0) {

  00000	8b 07		 mov	 eax, DWORD PTR [edi]
  00002	85 c0		 test	 eax, eax
  00004	79 1c		 jns	 SHORT $LN3@check@3

; 66   :       Print("Bounds error in List(%08x) T=%s index=%d min=0\n", (int)this, T::TYPENAME(), index);

  00006	50		 push	 eax
  00007	68 00 00 00 00	 push	 OFFSET ??_C@_09HGNANIIM@Explosion?$AA@
  0000c	56		 push	 esi
  0000d	68 00 00 00 00	 push	 OFFSET ??_C@_0DA@HIKLCBIP@Bounds?5error?5in?5List?$CI?$CF08x?$CJ?5T?$DN?$CFs?5@
  00012	e8 00 00 00 00	 call	 ?Print@@YAXPBDZZ	; Print
  00017	83 c4 10	 add	 esp, 16			; 00000010H

; 67   :       index = 0;

  0001a	c7 07 00 00 00
	00		 mov	 DWORD PTR [edi], 0
  00020	eb 26		 jmp	 SHORT $LN12@check@3
$LN3@check@3:

; 68   :    }
; 69   : 
; 70   :    else if (index >= items) {

  00022	8b 0e		 mov	 ecx, DWORD PTR [esi]
  00024	3b c1		 cmp	 eax, ecx
  00026	7c 1b		 jl	 SHORT $LN1@check@3

; 71   :       Print("Bounds error in List(%08x) T=%s index=%d max=%d\n", (int)this, T::TYPENAME(), index, items-1);

  00028	49		 dec	 ecx
  00029	51		 push	 ecx
  0002a	50		 push	 eax
  0002b	68 00 00 00 00	 push	 OFFSET ??_C@_09HGNANIIM@Explosion?$AA@
  00030	56		 push	 esi
  00031	68 00 00 00 00	 push	 OFFSET ??_C@_0DB@EEHODDHM@Bounds?5error?5in?5List?$CI?$CF08x?$CJ?5T?$DN?$CFs?5@
  00036	e8 00 00 00 00	 call	 ?Print@@YAXPBDZZ	; Print

; 72   :       index = items-1;

  0003b	8b 06		 mov	 eax, DWORD PTR [esi]
  0003d	83 c4 14	 add	 esp, 20			; 00000014H
  00040	48		 dec	 eax
  00041	89 07		 mov	 DWORD PTR [edi], eax
$LN1@check@3:

; 73   :    }
; 74   : 
; 75   :    return (index >= 0 && index < items);

  00043	83 3f 00	 cmp	 DWORD PTR [edi], 0
  00046	7c 0c		 jl	 SHORT $LN6@check@3
$LN12@check@3:
  00048	8b 0f		 mov	 ecx, DWORD PTR [edi]
  0004a	3b 0e		 cmp	 ecx, DWORD PTR [esi]
  0004c	7d 06		 jge	 SHORT $LN6@check@3
  0004e	b8 01 00 00 00	 mov	 eax, 1

; 76   : }

  00053	c3		 ret	 0
$LN6@check@3:

; 73   :    }
; 74   : 
; 75   :    return (index >= 0 && index < items);

  00054	33 c0		 xor	 eax, eax

; 76   : }

  00056	c3		 ret	 0
?check@?$List@VExplosion@@@@ABE_NAAH@Z ENDP		; List<Explosion>::check
; Function compile flags: /Ogtp
_TEXT	ENDS
;	COMDAT ?check@?$List@VDrone@@@@ABE_NAAH@Z
_TEXT	SEGMENT
?check@?$List@VDrone@@@@ABE_NAAH@Z PROC			; List<Drone>::check, COMDAT
; _this$ = esi
; _index$ = edi

; 65   :    if (index < 0) {

  00000	8b 07		 mov	 eax, DWORD PTR [edi]
  00002	85 c0		 test	 eax, eax
  00004	79 1c		 jns	 SHORT $LN3@check@4

; 66   :       Print("Bounds error in List(%08x) T=%s index=%d min=0\n", (int)this, T::TYPENAME(), index);

  00006	50		 push	 eax
  00007	68 00 00 00 00	 push	 OFFSET ??_C@_05GAGADLBE@Drone?$AA@
  0000c	56		 push	 esi
  0000d	68 00 00 00 00	 push	 OFFSET ??_C@_0DA@HIKLCBIP@Bounds?5error?5in?5List?$CI?$CF08x?$CJ?5T?$DN?$CFs?5@
  00012	e8 00 00 00 00	 call	 ?Print@@YAXPBDZZ	; Print
  00017	83 c4 10	 add	 esp, 16			; 00000010H

; 67   :       index = 0;

  0001a	c7 07 00 00 00
	00		 mov	 DWORD PTR [edi], 0
  00020	eb 26		 jmp	 SHORT $LN12@check@4
$LN3@check@4:

; 68   :    }
; 69   : 
; 70   :    else if (index >= items) {

  00022	8b 0e		 mov	 ecx, DWORD PTR [esi]
  00024	3b c1		 cmp	 eax, ecx
  00026	7c 1b		 jl	 SHORT $LN1@check@4

; 71   :       Print("Bounds error in List(%08x) T=%s index=%d max=%d\n", (int)this, T::TYPENAME(), index, items-1);

  00028	49		 dec	 ecx
  00029	51		 push	 ecx
  0002a	50		 push	 eax
  0002b	68 00 00 00 00	 push	 OFFSET ??_C@_05GAGADLBE@Drone?$AA@
  00030	56		 push	 esi
  00031	68 00 00 00 00	 push	 OFFSET ??_C@_0DB@EEHODDHM@Bounds?5error?5in?5List?$CI?$CF08x?$CJ?5T?$DN?$CFs?5@
  00036	e8 00 00 00 00	 call	 ?Print@@YAXPBDZZ	; Print

; 72   :       index = items-1;

  0003b	8b 06		 mov	 eax, DWORD PTR [esi]
  0003d	83 c4 14	 add	 esp, 20			; 00000014H
  00040	48		 dec	 eax
  00041	89 07		 mov	 DWORD PTR [edi], eax
$LN1@check@4:

; 73   :    }
; 74   : 
; 75   :    return (index >= 0 && index < items);

  00043	83 3f 00	 cmp	 DWORD PTR [edi], 0
  00046	7c 0c		 jl	 SHORT $LN6@check@4
$LN12@check@4:
  00048	8b 0f		 mov	 ecx, DWORD PTR [edi]
  0004a	3b 0e		 cmp	 ecx, DWORD PTR [esi]
  0004c	7d 06		 jge	 SHORT $LN6@check@4
  0004e	b8 01 00 00 00	 mov	 eax, 1

; 76   : }

  00053	c3		 ret	 0
$LN6@check@4:

; 73   :    }
; 74   : 
; 75   :    return (index >= 0 && index < items);

  00054	33 c0		 xor	 eax, eax

; 76   : }

  00056	c3		 ret	 0
?check@?$List@VDrone@@@@ABE_NAAH@Z ENDP			; List<Drone>::check
; Function compile flags: /Ogtp
_TEXT	ENDS
;	COMDAT ?index@?$List@VModel@@@@QBEHPBVModel@@@Z
_TEXT	SEGMENT
_val$ = 8						; size = 4
?index@?$List@VModel@@@@QBEHPBVModel@@@Z PROC		; List<Model>::index, COMDAT
; _this$ = ecx

; 274  : {

  00000	55		 push	 ebp
  00001	8b ec		 mov	 ebp, esp
  00003	56		 push	 esi

; 275  :    if (val) {

  00004	8b 75 08	 mov	 esi, DWORD PTR _val$[ebp]
  00007	85 f6		 test	 esi, esi
  00009	74 1c		 je	 SHORT $LN2@index

; 276  :       for (int i = 0; i < items; i++) {

  0000b	8b 11		 mov	 edx, DWORD PTR [ecx]
  0000d	33 c0		 xor	 eax, eax
  0000f	85 d2		 test	 edx, edx
  00011	7e 14		 jle	 SHORT $LN2@index
  00013	8b 49 08	 mov	 ecx, DWORD PTR [ecx+8]
$LL4@index:

; 277  :          if (array[i] && ((*array[i])==(*val)))

  00016	83 39 00	 cmp	 DWORD PTR [ecx], 0
  00019	74 04		 je	 SHORT $LN3@index
  0001b	39 31		 cmp	 DWORD PTR [ecx], esi
  0001d	74 0b		 je	 SHORT $LN6@index
$LN3@index:

; 276  :       for (int i = 0; i < items; i++) {

  0001f	40		 inc	 eax
  00020	83 c1 04	 add	 ecx, 4
  00023	3b c2		 cmp	 eax, edx
  00025	7c ef		 jl	 SHORT $LL4@index
$LN2@index:

; 278  :             return i;
; 279  :       }
; 280  :    }
; 281  : 
; 282  :    return -1;

  00027	83 c8 ff	 or	 eax, -1
$LN6@index:
  0002a	5e		 pop	 esi

; 283  : }

  0002b	5d		 pop	 ebp
  0002c	c2 04 00	 ret	 4
?index@?$List@VModel@@@@QBEHPBVModel@@@Z ENDP		; List<Model>::index
; Function compile flags: /Ogtp
_TEXT	ENDS
;	COMDAT ?removeIndex@?$List@VAsteroid@@@@QAEPAVAsteroid@@H@Z
_TEXT	SEGMENT
_index$ = 8						; size = 4
?removeIndex@?$List@VAsteroid@@@@QAEPAVAsteroid@@H@Z PROC ; List<Asteroid>::removeIndex, COMDAT
; _this$ = eax

; 222  : {

  00000	55		 push	 ebp
  00001	8b ec		 mov	 ebp, esp
  00003	56		 push	 esi
  00004	57		 push	 edi
  00005	8b f0		 mov	 esi, eax

; 223  :    if (!check(index))

  00007	8d 7d 08	 lea	 edi, DWORD PTR _index$[ebp]
  0000a	e8 00 00 00 00	 call	 ?check@?$List@VAsteroid@@@@ABE_NAAH@Z ; List<Asteroid>::check
  0000f	84 c0		 test	 al, al
  00011	75 08		 jne	 SHORT $LN4@removeInde

; 224  :       return 0;

  00013	5f		 pop	 edi
  00014	33 c0		 xor	 eax, eax
  00016	5e		 pop	 esi

; 237  :    return tmp;
; 238  : }

  00017	5d		 pop	 ebp
  00018	c2 04 00	 ret	 4
$LN4@removeInde:

; 225  : 
; 226  :    T* tmp = array[index];

  0001b	8b 46 08	 mov	 eax, DWORD PTR [esi+8]
  0001e	8b 4d 08	 mov	 ecx, DWORD PTR _index$[ebp]
  00021	8d 14 88	 lea	 edx, DWORD PTR [eax+ecx*4]
  00024	8b 02		 mov	 eax, DWORD PTR [edx]

; 227  :    array[index] = 0;

  00026	c7 02 00 00 00
	00		 mov	 DWORD PTR [edx], 0

; 228  : 
; 229  :    // slide left:
; 230  :    for (int i = index; i < items-1; i++)

  0002c	8b 16		 mov	 edx, DWORD PTR [esi]
  0002e	4a		 dec	 edx
  0002f	3b ca		 cmp	 ecx, edx
  00031	7d 14		 jge	 SHORT $LN1@removeInde
$LL3@removeInde:
  00033	8b 56 08	 mov	 edx, DWORD PTR [esi+8]

; 231  :       array[i] = array[i+1];

  00036	8b 7c 8a 04	 mov	 edi, DWORD PTR [edx+ecx*4+4]
  0003a	8d 14 8a	 lea	 edx, DWORD PTR [edx+ecx*4]
  0003d	89 3a		 mov	 DWORD PTR [edx], edi
  0003f	8b 16		 mov	 edx, DWORD PTR [esi]
  00041	41		 inc	 ecx
  00042	4a		 dec	 edx
  00043	3b ca		 cmp	 ecx, edx
  00045	7c ec		 jl	 SHORT $LL3@removeInde
$LN1@removeInde:

; 232  : 
; 233  :    // blank out the hole we just created:
; 234  :    array[items-1] = 0;

  00047	8b 0e		 mov	 ecx, DWORD PTR [esi]
  00049	8b 56 08	 mov	 edx, DWORD PTR [esi+8]
  0004c	c7 44 8a fc 00
	00 00 00	 mov	 DWORD PTR [edx+ecx*4-4], 0

; 235  : 
; 236  :    items--;

  00054	ff 0e		 dec	 DWORD PTR [esi]
  00056	5f		 pop	 edi
  00057	5e		 pop	 esi

; 237  :    return tmp;
; 238  : }

  00058	5d		 pop	 ebp
  00059	c2 04 00	 ret	 4
?removeIndex@?$List@VAsteroid@@@@QAEPAVAsteroid@@H@Z ENDP ; List<Asteroid>::removeIndex
; Function compile flags: /Ogtp
_TEXT	ENDS
;	COMDAT ?removeIndex@?$List@VDebris@@@@QAEPAVDebris@@H@Z
_TEXT	SEGMENT
_index$ = 8						; size = 4
?removeIndex@?$List@VDebris@@@@QAEPAVDebris@@H@Z PROC	; List<Debris>::removeIndex, COMDAT
; _this$ = eax

; 222  : {

  00000	55		 push	 ebp
  00001	8b ec		 mov	 ebp, esp
  00003	56		 push	 esi
  00004	57		 push	 edi
  00005	8b f0		 mov	 esi, eax

; 223  :    if (!check(index))

  00007	8d 7d 08	 lea	 edi, DWORD PTR _index$[ebp]
  0000a	e8 00 00 00 00	 call	 ?check@?$List@VDebris@@@@ABE_NAAH@Z ; List<Debris>::check
  0000f	84 c0		 test	 al, al
  00011	75 08		 jne	 SHORT $LN4@removeInde@2

; 224  :       return 0;

  00013	5f		 pop	 edi
  00014	33 c0		 xor	 eax, eax
  00016	5e		 pop	 esi

; 237  :    return tmp;
; 238  : }

  00017	5d		 pop	 ebp
  00018	c2 04 00	 ret	 4
$LN4@removeInde@2:

; 225  : 
; 226  :    T* tmp = array[index];

  0001b	8b 46 08	 mov	 eax, DWORD PTR [esi+8]
  0001e	8b 4d 08	 mov	 ecx, DWORD PTR _index$[ebp]
  00021	8d 14 88	 lea	 edx, DWORD PTR [eax+ecx*4]
  00024	8b 02		 mov	 eax, DWORD PTR [edx]

; 227  :    array[index] = 0;

  00026	c7 02 00 00 00
	00		 mov	 DWORD PTR [edx], 0

; 228  : 
; 229  :    // slide left:
; 230  :    for (int i = index; i < items-1; i++)

  0002c	8b 16		 mov	 edx, DWORD PTR [esi]
  0002e	4a		 dec	 edx
  0002f	3b ca		 cmp	 ecx, edx
  00031	7d 14		 jge	 SHORT $LN1@removeInde@2
$LL3@removeInde@2:
  00033	8b 56 08	 mov	 edx, DWORD PTR [esi+8]

; 231  :       array[i] = array[i+1];

  00036	8b 7c 8a 04	 mov	 edi, DWORD PTR [edx+ecx*4+4]
  0003a	8d 14 8a	 lea	 edx, DWORD PTR [edx+ecx*4]
  0003d	89 3a		 mov	 DWORD PTR [edx], edi
  0003f	8b 16		 mov	 edx, DWORD PTR [esi]
  00041	41		 inc	 ecx
  00042	4a		 dec	 edx
  00043	3b ca		 cmp	 ecx, edx
  00045	7c ec		 jl	 SHORT $LL3@removeInde@2
$LN1@removeInde@2:

; 232  : 
; 233  :    // blank out the hole we just created:
; 234  :    array[items-1] = 0;

  00047	8b 0e		 mov	 ecx, DWORD PTR [esi]
  00049	8b 56 08	 mov	 edx, DWORD PTR [esi+8]
  0004c	c7 44 8a fc 00
	00 00 00	 mov	 DWORD PTR [edx+ecx*4-4], 0

; 235  : 
; 236  :    items--;

  00054	ff 0e		 dec	 DWORD PTR [esi]
  00056	5f		 pop	 edi
  00057	5e		 pop	 esi

; 237  :    return tmp;
; 238  : }

  00058	5d		 pop	 ebp
  00059	c2 04 00	 ret	 4
?removeIndex@?$List@VDebris@@@@QAEPAVDebris@@H@Z ENDP	; List<Debris>::removeIndex
; Function compile flags: /Ogtp
_TEXT	ENDS
;	COMDAT ?removeIndex@?$List@VExplosion@@@@QAEPAVExplosion@@H@Z
_TEXT	SEGMENT
_index$ = 8						; size = 4
?removeIndex@?$List@VExplosion@@@@QAEPAVExplosion@@H@Z PROC ; List<Explosion>::removeIndex, COMDAT
; _this$ = eax

; 222  : {

  00000	55		 push	 ebp
  00001	8b ec		 mov	 ebp, esp
  00003	56		 push	 esi
  00004	57		 push	 edi
  00005	8b f0		 mov	 esi, eax

; 223  :    if (!check(index))

  00007	8d 7d 08	 lea	 edi, DWORD PTR _index$[ebp]
  0000a	e8 00 00 00 00	 call	 ?check@?$List@VExplosion@@@@ABE_NAAH@Z ; List<Explosion>::check
  0000f	84 c0		 test	 al, al
  00011	75 08		 jne	 SHORT $LN4@removeInde@3

; 224  :       return 0;

  00013	5f		 pop	 edi
  00014	33 c0		 xor	 eax, eax
  00016	5e		 pop	 esi

; 237  :    return tmp;
; 238  : }

  00017	5d		 pop	 ebp
  00018	c2 04 00	 ret	 4
$LN4@removeInde@3:

; 225  : 
; 226  :    T* tmp = array[index];

  0001b	8b 46 08	 mov	 eax, DWORD PTR [esi+8]
  0001e	8b 4d 08	 mov	 ecx, DWORD PTR _index$[ebp]
  00021	8d 14 88	 lea	 edx, DWORD PTR [eax+ecx*4]
  00024	8b 02		 mov	 eax, DWORD PTR [edx]

; 227  :    array[index] = 0;

  00026	c7 02 00 00 00
	00		 mov	 DWORD PTR [edx], 0

; 228  : 
; 229  :    // slide left:
; 230  :    for (int i = index; i < items-1; i++)

  0002c	8b 16		 mov	 edx, DWORD PTR [esi]
  0002e	4a		 dec	 edx
  0002f	3b ca		 cmp	 ecx, edx
  00031	7d 14		 jge	 SHORT $LN1@removeInde@3
$LL3@removeInde@3:
  00033	8b 56 08	 mov	 edx, DWORD PTR [esi+8]

; 231  :       array[i] = array[i+1];

  00036	8b 7c 8a 04	 mov	 edi, DWORD PTR [edx+ecx*4+4]
  0003a	8d 14 8a	 lea	 edx, DWORD PTR [edx+ecx*4]
  0003d	89 3a		 mov	 DWORD PTR [edx], edi
  0003f	8b 16		 mov	 edx, DWORD PTR [esi]
  00041	41		 inc	 ecx
  00042	4a		 dec	 edx
  00043	3b ca		 cmp	 ecx, edx
  00045	7c ec		 jl	 SHORT $LL3@removeInde@3
$LN1@removeInde@3:

; 232  : 
; 233  :    // blank out the hole we just created:
; 234  :    array[items-1] = 0;

  00047	8b 0e		 mov	 ecx, DWORD PTR [esi]
  00049	8b 56 08	 mov	 edx, DWORD PTR [esi+8]
  0004c	c7 44 8a fc 00
	00 00 00	 mov	 DWORD PTR [edx+ecx*4-4], 0

; 235  : 
; 236  :    items--;

  00054	ff 0e		 dec	 DWORD PTR [esi]
  00056	5f		 pop	 edi
  00057	5e		 pop	 esi

; 237  :    return tmp;
; 238  : }

  00058	5d		 pop	 ebp
  00059	c2 04 00	 ret	 4
?removeIndex@?$List@VExplosion@@@@QAEPAVExplosion@@H@Z ENDP ; List<Explosion>::removeIndex
; Function compile flags: /Ogtp
_TEXT	ENDS
;	COMDAT ?removeIndex@?$List@VDrone@@@@QAEPAVDrone@@H@Z
_TEXT	SEGMENT
_index$ = 8						; size = 4
?removeIndex@?$List@VDrone@@@@QAEPAVDrone@@H@Z PROC	; List<Drone>::removeIndex, COMDAT
; _this$ = eax

; 222  : {

  00000	55		 push	 ebp
  00001	8b ec		 mov	 ebp, esp
  00003	56		 push	 esi
  00004	57		 push	 edi
  00005	8b f0		 mov	 esi, eax

; 223  :    if (!check(index))

  00007	8d 7d 08	 lea	 edi, DWORD PTR _index$[ebp]
  0000a	e8 00 00 00 00	 call	 ?check@?$List@VDrone@@@@ABE_NAAH@Z ; List<Drone>::check
  0000f	84 c0		 test	 al, al
  00011	75 08		 jne	 SHORT $LN4@removeInde@4

; 224  :       return 0;

  00013	5f		 pop	 edi
  00014	33 c0		 xor	 eax, eax
  00016	5e		 pop	 esi

; 237  :    return tmp;
; 238  : }

  00017	5d		 pop	 ebp
  00018	c2 04 00	 ret	 4
$LN4@removeInde@4:

; 225  : 
; 226  :    T* tmp = array[index];

  0001b	8b 46 08	 mov	 eax, DWORD PTR [esi+8]
  0001e	8b 4d 08	 mov	 ecx, DWORD PTR _index$[ebp]
  00021	8d 14 88	 lea	 edx, DWORD PTR [eax+ecx*4]
  00024	8b 02		 mov	 eax, DWORD PTR [edx]

; 227  :    array[index] = 0;

  00026	c7 02 00 00 00
	00		 mov	 DWORD PTR [edx], 0

; 228  : 
; 229  :    // slide left:
; 230  :    for (int i = index; i < items-1; i++)

  0002c	8b 16		 mov	 edx, DWORD PTR [esi]
  0002e	4a		 dec	 edx
  0002f	3b ca		 cmp	 ecx, edx
  00031	7d 14		 jge	 SHORT $LN1@removeInde@4
$LL3@removeInde@4:
  00033	8b 56 08	 mov	 edx, DWORD PTR [esi+8]

; 231  :       array[i] = array[i+1];

  00036	8b 7c 8a 04	 mov	 edi, DWORD PTR [edx+ecx*4+4]
  0003a	8d 14 8a	 lea	 edx, DWORD PTR [edx+ecx*4]
  0003d	89 3a		 mov	 DWORD PTR [edx], edi
  0003f	8b 16		 mov	 edx, DWORD PTR [esi]
  00041	41		 inc	 ecx
  00042	4a		 dec	 edx
  00043	3b ca		 cmp	 ecx, edx
  00045	7c ec		 jl	 SHORT $LL3@removeInde@4
$LN1@removeInde@4:

; 232  : 
; 233  :    // blank out the hole we just created:
; 234  :    array[items-1] = 0;

  00047	8b 0e		 mov	 ecx, DWORD PTR [esi]
  00049	8b 56 08	 mov	 edx, DWORD PTR [esi+8]
  0004c	c7 44 8a fc 00
	00 00 00	 mov	 DWORD PTR [edx+ecx*4-4], 0

; 235  : 
; 236  :    items--;

  00054	ff 0e		 dec	 DWORD PTR [esi]
  00056	5f		 pop	 edi
  00057	5e		 pop	 esi

; 237  :    return tmp;
; 238  : }

  00058	5d		 pop	 ebp
  00059	c2 04 00	 ret	 4
?removeIndex@?$List@VDrone@@@@QAEPAVDrone@@H@Z ENDP	; List<Drone>::removeIndex
; Function compile flags: /Ogtp
_TEXT	ENDS
;	COMDAT ?check@?$List@VElement@@@@ABE_NAAH@Z
_TEXT	SEGMENT
?check@?$List@VElement@@@@ABE_NAAH@Z PROC		; List<Element>::check, COMDAT
; _this$ = esi
; _index$ = edi

; 65   :    if (index < 0) {

  00000	8b 07		 mov	 eax, DWORD PTR [edi]
  00002	85 c0		 test	 eax, eax
  00004	79 1c		 jns	 SHORT $LN3@check@5

; 66   :       Print("Bounds error in List(%08x) T=%s index=%d min=0\n", (int)this, T::TYPENAME(), index);

  00006	50		 push	 eax
  00007	68 00 00 00 00	 push	 OFFSET ??_C@_0M@EIEAPHAO@SimObserver?$AA@
  0000c	56		 push	 esi
  0000d	68 00 00 00 00	 push	 OFFSET ??_C@_0DA@HIKLCBIP@Bounds?5error?5in?5List?$CI?$CF08x?$CJ?5T?$DN?$CFs?5@
  00012	e8 00 00 00 00	 call	 ?Print@@YAXPBDZZ	; Print
  00017	83 c4 10	 add	 esp, 16			; 00000010H

; 67   :       index = 0;

  0001a	c7 07 00 00 00
	00		 mov	 DWORD PTR [edi], 0
  00020	eb 26		 jmp	 SHORT $LN12@check@5
$LN3@check@5:

; 68   :    }
; 69   : 
; 70   :    else if (index >= items) {

  00022	8b 0e		 mov	 ecx, DWORD PTR [esi]
  00024	3b c1		 cmp	 eax, ecx
  00026	7c 1b		 jl	 SHORT $LN1@check@5

; 71   :       Print("Bounds error in List(%08x) T=%s index=%d max=%d\n", (int)this, T::TYPENAME(), index, items-1);

  00028	49		 dec	 ecx
  00029	51		 push	 ecx
  0002a	50		 push	 eax
  0002b	68 00 00 00 00	 push	 OFFSET ??_C@_0M@EIEAPHAO@SimObserver?$AA@
  00030	56		 push	 esi
  00031	68 00 00 00 00	 push	 OFFSET ??_C@_0DB@EEHODDHM@Bounds?5error?5in?5List?$CI?$CF08x?$CJ?5T?$DN?$CFs?5@
  00036	e8 00 00 00 00	 call	 ?Print@@YAXPBDZZ	; Print

; 72   :       index = items-1;

  0003b	8b 06		 mov	 eax, DWORD PTR [esi]
  0003d	83 c4 14	 add	 esp, 20			; 00000014H
  00040	48		 dec	 eax
  00041	89 07		 mov	 DWORD PTR [edi], eax
$LN1@check@5:

; 73   :    }
; 74   : 
; 75   :    return (index >= 0 && index < items);

  00043	83 3f 00	 cmp	 DWORD PTR [edi], 0
  00046	7c 0c		 jl	 SHORT $LN6@check@5
$LN12@check@5:
  00048	8b 0f		 mov	 ecx, DWORD PTR [edi]
  0004a	3b 0e		 cmp	 ecx, DWORD PTR [esi]
  0004c	7d 06		 jge	 SHORT $LN6@check@5
  0004e	b8 01 00 00 00	 mov	 eax, 1

; 76   : }

  00053	c3		 ret	 0
$LN6@check@5:

; 73   :    }
; 74   : 
; 75   :    return (index >= 0 && index < items);

  00054	33 c0		 xor	 eax, eax

; 76   : }

  00056	c3		 ret	 0
?check@?$List@VElement@@@@ABE_NAAH@Z ENDP		; List<Element>::check
; Function compile flags: /Ogtp
_TEXT	ENDS
;	COMDAT ?removeIndex@?$List@VElement@@@@QAEPAVElement@@H@Z
_TEXT	SEGMENT
_index$ = 8						; size = 4
?removeIndex@?$List@VElement@@@@QAEPAVElement@@H@Z PROC	; List<Element>::removeIndex, COMDAT
; _this$ = eax

; 222  : {

  00000	55		 push	 ebp
  00001	8b ec		 mov	 ebp, esp
  00003	56		 push	 esi
  00004	57		 push	 edi
  00005	8b f0		 mov	 esi, eax

; 223  :    if (!check(index))

  00007	8d 7d 08	 lea	 edi, DWORD PTR _index$[ebp]
  0000a	e8 00 00 00 00	 call	 ?check@?$List@VElement@@@@ABE_NAAH@Z ; List<Element>::check
  0000f	84 c0		 test	 al, al
  00011	75 08		 jne	 SHORT $LN4@removeInde@5

; 224  :       return 0;

  00013	5f		 pop	 edi
  00014	33 c0		 xor	 eax, eax
  00016	5e		 pop	 esi

; 237  :    return tmp;
; 238  : }

  00017	5d		 pop	 ebp
  00018	c2 04 00	 ret	 4
$LN4@removeInde@5:

; 225  : 
; 226  :    T* tmp = array[index];

  0001b	8b 46 08	 mov	 eax, DWORD PTR [esi+8]
  0001e	8b 4d 08	 mov	 ecx, DWORD PTR _index$[ebp]
  00021	8d 14 88	 lea	 edx, DWORD PTR [eax+ecx*4]
  00024	8b 02		 mov	 eax, DWORD PTR [edx]

; 227  :    array[index] = 0;

  00026	c7 02 00 00 00
	00		 mov	 DWORD PTR [edx], 0

; 228  : 
; 229  :    // slide left:
; 230  :    for (int i = index; i < items-1; i++)

  0002c	8b 16		 mov	 edx, DWORD PTR [esi]
  0002e	4a		 dec	 edx
  0002f	3b ca		 cmp	 ecx, edx
  00031	7d 14		 jge	 SHORT $LN1@removeInde@5
$LL3@removeInde@5:
  00033	8b 56 08	 mov	 edx, DWORD PTR [esi+8]

; 231  :       array[i] = array[i+1];

  00036	8b 7c 8a 04	 mov	 edi, DWORD PTR [edx+ecx*4+4]
  0003a	8d 14 8a	 lea	 edx, DWORD PTR [edx+ecx*4]
  0003d	89 3a		 mov	 DWORD PTR [edx], edi
  0003f	8b 16		 mov	 edx, DWORD PTR [esi]
  00041	41		 inc	 ecx
  00042	4a		 dec	 edx
  00043	3b ca		 cmp	 ecx, edx
  00045	7c ec		 jl	 SHORT $LL3@removeInde@5
$LN1@removeInde@5:

; 232  : 
; 233  :    // blank out the hole we just created:
; 234  :    array[items-1] = 0;

  00047	8b 0e		 mov	 ecx, DWORD PTR [esi]
  00049	8b 56 08	 mov	 edx, DWORD PTR [esi+8]
  0004c	c7 44 8a fc 00
	00 00 00	 mov	 DWORD PTR [edx+ecx*4-4], 0

; 235  : 
; 236  :    items--;

  00054	ff 0e		 dec	 DWORD PTR [esi]
  00056	5f		 pop	 edi
  00057	5e		 pop	 esi

; 237  :    return tmp;
; 238  : }

  00058	5d		 pop	 ebp
  00059	c2 04 00	 ret	 4
?removeIndex@?$List@VElement@@@@QAEPAVElement@@H@Z ENDP	; List<Element>::removeIndex
; Function compile flags: /Ogtp
_TEXT	ENDS
;	COMDAT ?removeItem@?$ListIter@VDebris@@@@QAEPAVDebris@@XZ
_TEXT	SEGMENT
?removeItem@?$ListIter@VDebris@@@@QAEPAVDebris@@XZ PROC	; ListIter<Debris>::removeItem, COMDAT
; _this$ = edx

; 393  :    if (list && step >= 0 && step < list->items)

  00000	8b 02		 mov	 eax, DWORD PTR [edx]
  00002	85 c0		 test	 eax, eax
  00004	74 1a		 je	 SHORT $LN1@removeItem
  00006	8b 4a 04	 mov	 ecx, DWORD PTR [edx+4]
  00009	85 c9		 test	 ecx, ecx
  0000b	78 13		 js	 SHORT $LN1@removeItem
  0000d	3b 08		 cmp	 ecx, DWORD PTR [eax]
  0000f	7d 0f		 jge	 SHORT $LN1@removeItem

; 394  :       return list->removeIndex(step--);

  00011	56		 push	 esi
  00012	8d 71 ff	 lea	 esi, DWORD PTR [ecx-1]
  00015	51		 push	 ecx
  00016	89 72 04	 mov	 DWORD PTR [edx+4], esi
  00019	e8 00 00 00 00	 call	 ?removeIndex@?$List@VDebris@@@@QAEPAVDebris@@H@Z ; List<Debris>::removeIndex
  0001e	5e		 pop	 esi

; 397  : }

  0001f	c3		 ret	 0
$LN1@removeItem:

; 395  : 
; 396  :    return 0;

  00020	33 c0		 xor	 eax, eax

; 397  : }

  00022	c3		 ret	 0
?removeItem@?$ListIter@VDebris@@@@QAEPAVDebris@@XZ ENDP	; ListIter<Debris>::removeItem
; Function compile flags: /Ogtp
_TEXT	ENDS
;	COMDAT ?removeItem@?$ListIter@VExplosion@@@@QAEPAVExplosion@@XZ
_TEXT	SEGMENT
?removeItem@?$ListIter@VExplosion@@@@QAEPAVExplosion@@XZ PROC ; ListIter<Explosion>::removeItem, COMDAT
; _this$ = edx

; 393  :    if (list && step >= 0 && step < list->items)

  00000	8b 02		 mov	 eax, DWORD PTR [edx]
  00002	85 c0		 test	 eax, eax
  00004	74 1a		 je	 SHORT $LN1@removeItem@2
  00006	8b 4a 04	 mov	 ecx, DWORD PTR [edx+4]
  00009	85 c9		 test	 ecx, ecx
  0000b	78 13		 js	 SHORT $LN1@removeItem@2
  0000d	3b 08		 cmp	 ecx, DWORD PTR [eax]
  0000f	7d 0f		 jge	 SHORT $LN1@removeItem@2

; 394  :       return list->removeIndex(step--);

  00011	56		 push	 esi
  00012	8d 71 ff	 lea	 esi, DWORD PTR [ecx-1]
  00015	51		 push	 ecx
  00016	89 72 04	 mov	 DWORD PTR [edx+4], esi
  00019	e8 00 00 00 00	 call	 ?removeIndex@?$List@VExplosion@@@@QAEPAVExplosion@@H@Z ; List<Explosion>::removeIndex
  0001e	5e		 pop	 esi

; 397  : }

  0001f	c3		 ret	 0
$LN1@removeItem@2:

; 395  : 
; 396  :    return 0;

  00020	33 c0		 xor	 eax, eax

; 397  : }

  00022	c3		 ret	 0
?removeItem@?$ListIter@VExplosion@@@@QAEPAVExplosion@@XZ ENDP ; ListIter<Explosion>::removeItem
; Function compile flags: /Ogtp
_TEXT	ENDS
;	COMDAT ?removeItem@?$ListIter@VElement@@@@QAEPAVElement@@XZ
_TEXT	SEGMENT
?removeItem@?$ListIter@VElement@@@@QAEPAVElement@@XZ PROC ; ListIter<Element>::removeItem, COMDAT
; _this$ = edx

; 393  :    if (list && step >= 0 && step < list->items)

  00000	8b 02		 mov	 eax, DWORD PTR [edx]
  00002	85 c0		 test	 eax, eax
  00004	74 1a		 je	 SHORT $LN1@removeItem@3
  00006	8b 4a 04	 mov	 ecx, DWORD PTR [edx+4]
  00009	85 c9		 test	 ecx, ecx
  0000b	78 13		 js	 SHORT $LN1@removeItem@3
  0000d	3b 08		 cmp	 ecx, DWORD PTR [eax]
  0000f	7d 0f		 jge	 SHORT $LN1@removeItem@3

; 394  :       return list->removeIndex(step--);

  00011	56		 push	 esi
  00012	8d 71 ff	 lea	 esi, DWORD PTR [ecx-1]
  00015	51		 push	 ecx
  00016	89 72 04	 mov	 DWORD PTR [edx+4], esi
  00019	e8 00 00 00 00	 call	 ?removeIndex@?$List@VElement@@@@QAEPAVElement@@H@Z ; List<Element>::removeIndex
  0001e	5e		 pop	 esi

; 397  : }

  0001f	c3		 ret	 0
$LN1@removeItem@3:

; 395  : 
; 396  :    return 0;

  00020	33 c0		 xor	 eax, eax

; 397  : }

  00022	c3		 ret	 0
?removeItem@?$ListIter@VElement@@@@QAEPAVElement@@XZ ENDP ; ListIter<Element>::removeItem
; Function compile flags: /Ogtp
_TEXT	ENDS
;	COMDAT ?contains@?$List@VModel@@@@QBE_NPBVModel@@@Z
_TEXT	SEGMENT
_val$ = 8						; size = 4
?contains@?$List@VModel@@@@QBE_NPBVModel@@@Z PROC	; List<Model>::contains, COMDAT
; _this$ = ecx

; 244  : {

  00000	55		 push	 ebp
  00001	8b ec		 mov	 ebp, esp

; 245  :    if (val) {

  00003	8b 45 08	 mov	 eax, DWORD PTR _val$[ebp]
  00006	85 c0		 test	 eax, eax
  00008	74 11		 je	 SHORT $LN1@contains

; 246  :       if (index(val) != -1)

  0000a	50		 push	 eax
  0000b	e8 00 00 00 00	 call	 ?index@?$List@VModel@@@@QBEHPBVModel@@@Z ; List<Model>::index
  00010	83 f8 ff	 cmp	 eax, -1
  00013	74 06		 je	 SHORT $LN1@contains

; 247  : 		  return true;

  00015	b0 01		 mov	 al, 1

; 251  : }

  00017	5d		 pop	 ebp
  00018	c2 04 00	 ret	 4
$LN1@contains:

; 248  :    }
; 249  : 
; 250  :    return false;

  0001b	32 c0		 xor	 al, al

; 251  : }

  0001d	5d		 pop	 ebp
  0001e	c2 04 00	 ret	 4
?contains@?$List@VModel@@@@QBE_NPBVModel@@@Z ENDP	; List<Model>::contains
; Function compile flags: /Ogtp
_TEXT	ENDS
;	COMDAT ?remove@?$List@VAsteroid@@@@QAEPAVAsteroid@@PBV2@@Z
_TEXT	SEGMENT
?remove@?$List@VAsteroid@@@@QAEPAVAsteroid@@PBV2@@Z PROC ; List<Asteroid>::remove, COMDAT
; _this$ = eax
; _val$ = edi

; 206  :    if (items == 0 || val == 0)

  00000	8b 10		 mov	 edx, DWORD PTR [eax]
  00002	85 d2		 test	 edx, edx
  00004	74 26		 je	 SHORT $LN5@remove
  00006	85 ff		 test	 edi, edi
  00008	74 22		 je	 SHORT $LN5@remove

; 208  : 
; 209  :    for (int i = 0; i < items; i++) {

  0000a	33 c9		 xor	 ecx, ecx
  0000c	56		 push	 esi
  0000d	85 d2		 test	 edx, edx
  0000f	7e 0f		 jle	 SHORT $LN2@remove
  00011	8b 70 08	 mov	 esi, DWORD PTR [eax+8]
$LL4@remove:

; 210  :       if (array[i] == val) {

  00014	39 3e		 cmp	 DWORD PTR [esi], edi
  00016	74 0c		 je	 SHORT $LN10@remove

; 208  : 
; 209  :    for (int i = 0; i < items; i++) {

  00018	41		 inc	 ecx
  00019	83 c6 04	 add	 esi, 4
  0001c	3b ca		 cmp	 ecx, edx
  0001e	7c f4		 jl	 SHORT $LL4@remove
$LN2@remove:

; 212  :       }
; 213  :    }
; 214  :    
; 215  :    return 0;

  00020	33 c0		 xor	 eax, eax
  00022	5e		 pop	 esi

; 216  : }

  00023	c3		 ret	 0
$LN10@remove:

; 211  :          return removeIndex(i);

  00024	51		 push	 ecx
  00025	e8 00 00 00 00	 call	 ?removeIndex@?$List@VAsteroid@@@@QAEPAVAsteroid@@H@Z ; List<Asteroid>::removeIndex
  0002a	5e		 pop	 esi

; 216  : }

  0002b	c3		 ret	 0
$LN5@remove:

; 207  :       return 0;

  0002c	33 c0		 xor	 eax, eax

; 216  : }

  0002e	c3		 ret	 0
?remove@?$List@VAsteroid@@@@QAEPAVAsteroid@@PBV2@@Z ENDP ; List<Asteroid>::remove
; Function compile flags: /Ogtp
_TEXT	ENDS
;	COMDAT ?remove@?$List@VDebris@@@@QAEPAVDebris@@PBV2@@Z
_TEXT	SEGMENT
?remove@?$List@VDebris@@@@QAEPAVDebris@@PBV2@@Z PROC	; List<Debris>::remove, COMDAT
; _this$ = eax
; _val$ = edi

; 206  :    if (items == 0 || val == 0)

  00000	8b 10		 mov	 edx, DWORD PTR [eax]
  00002	85 d2		 test	 edx, edx
  00004	74 26		 je	 SHORT $LN5@remove@2
  00006	85 ff		 test	 edi, edi
  00008	74 22		 je	 SHORT $LN5@remove@2

; 208  : 
; 209  :    for (int i = 0; i < items; i++) {

  0000a	33 c9		 xor	 ecx, ecx
  0000c	56		 push	 esi
  0000d	85 d2		 test	 edx, edx
  0000f	7e 0f		 jle	 SHORT $LN2@remove@2
  00011	8b 70 08	 mov	 esi, DWORD PTR [eax+8]
$LL4@remove@2:

; 210  :       if (array[i] == val) {

  00014	39 3e		 cmp	 DWORD PTR [esi], edi
  00016	74 0c		 je	 SHORT $LN10@remove@2

; 208  : 
; 209  :    for (int i = 0; i < items; i++) {

  00018	41		 inc	 ecx
  00019	83 c6 04	 add	 esi, 4
  0001c	3b ca		 cmp	 ecx, edx
  0001e	7c f4		 jl	 SHORT $LL4@remove@2
$LN2@remove@2:

; 212  :       }
; 213  :    }
; 214  :    
; 215  :    return 0;

  00020	33 c0		 xor	 eax, eax
  00022	5e		 pop	 esi

; 216  : }

  00023	c3		 ret	 0
$LN10@remove@2:

; 211  :          return removeIndex(i);

  00024	51		 push	 ecx
  00025	e8 00 00 00 00	 call	 ?removeIndex@?$List@VDebris@@@@QAEPAVDebris@@H@Z ; List<Debris>::removeIndex
  0002a	5e		 pop	 esi

; 216  : }

  0002b	c3		 ret	 0
$LN5@remove@2:

; 207  :       return 0;

  0002c	33 c0		 xor	 eax, eax

; 216  : }

  0002e	c3		 ret	 0
?remove@?$List@VDebris@@@@QAEPAVDebris@@PBV2@@Z ENDP	; List<Debris>::remove
; Function compile flags: /Ogtp
_TEXT	ENDS
;	COMDAT ?remove@?$List@VExplosion@@@@QAEPAVExplosion@@PBV2@@Z
_TEXT	SEGMENT
?remove@?$List@VExplosion@@@@QAEPAVExplosion@@PBV2@@Z PROC ; List<Explosion>::remove, COMDAT
; _this$ = eax
; _val$ = edi

; 206  :    if (items == 0 || val == 0)

  00000	8b 10		 mov	 edx, DWORD PTR [eax]
  00002	85 d2		 test	 edx, edx
  00004	74 26		 je	 SHORT $LN5@remove@3
  00006	85 ff		 test	 edi, edi
  00008	74 22		 je	 SHORT $LN5@remove@3

; 208  : 
; 209  :    for (int i = 0; i < items; i++) {

  0000a	33 c9		 xor	 ecx, ecx
  0000c	56		 push	 esi
  0000d	85 d2		 test	 edx, edx
  0000f	7e 0f		 jle	 SHORT $LN2@remove@3
  00011	8b 70 08	 mov	 esi, DWORD PTR [eax+8]
$LL4@remove@3:

; 210  :       if (array[i] == val) {

  00014	39 3e		 cmp	 DWORD PTR [esi], edi
  00016	74 0c		 je	 SHORT $LN10@remove@3

; 208  : 
; 209  :    for (int i = 0; i < items; i++) {

  00018	41		 inc	 ecx
  00019	83 c6 04	 add	 esi, 4
  0001c	3b ca		 cmp	 ecx, edx
  0001e	7c f4		 jl	 SHORT $LL4@remove@3
$LN2@remove@3:

; 212  :       }
; 213  :    }
; 214  :    
; 215  :    return 0;

  00020	33 c0		 xor	 eax, eax
  00022	5e		 pop	 esi

; 216  : }

  00023	c3		 ret	 0
$LN10@remove@3:

; 211  :          return removeIndex(i);

  00024	51		 push	 ecx
  00025	e8 00 00 00 00	 call	 ?removeIndex@?$List@VExplosion@@@@QAEPAVExplosion@@H@Z ; List<Explosion>::removeIndex
  0002a	5e		 pop	 esi

; 216  : }

  0002b	c3		 ret	 0
$LN5@remove@3:

; 207  :       return 0;

  0002c	33 c0		 xor	 eax, eax

; 216  : }

  0002e	c3		 ret	 0
?remove@?$List@VExplosion@@@@QAEPAVExplosion@@PBV2@@Z ENDP ; List<Explosion>::remove
; Function compile flags: /Ogtp
_TEXT	ENDS
;	COMDAT ?remove@?$List@VDrone@@@@QAEPAVDrone@@PBV2@@Z
_TEXT	SEGMENT
?remove@?$List@VDrone@@@@QAEPAVDrone@@PBV2@@Z PROC	; List<Drone>::remove, COMDAT
; _this$ = eax
; _val$ = edi

; 206  :    if (items == 0 || val == 0)

  00000	8b 10		 mov	 edx, DWORD PTR [eax]
  00002	85 d2		 test	 edx, edx
  00004	74 26		 je	 SHORT $LN5@remove@4
  00006	85 ff		 test	 edi, edi
  00008	74 22		 je	 SHORT $LN5@remove@4

; 208  : 
; 209  :    for (int i = 0; i < items; i++) {

  0000a	33 c9		 xor	 ecx, ecx
  0000c	56		 push	 esi
  0000d	85 d2		 test	 edx, edx
  0000f	7e 0f		 jle	 SHORT $LN2@remove@4
  00011	8b 70 08	 mov	 esi, DWORD PTR [eax+8]
$LL4@remove@4:

; 210  :       if (array[i] == val) {

  00014	39 3e		 cmp	 DWORD PTR [esi], edi
  00016	74 0c		 je	 SHORT $LN10@remove@4

; 208  : 
; 209  :    for (int i = 0; i < items; i++) {

  00018	41		 inc	 ecx
  00019	83 c6 04	 add	 esi, 4
  0001c	3b ca		 cmp	 ecx, edx
  0001e	7c f4		 jl	 SHORT $LL4@remove@4
$LN2@remove@4:

; 212  :       }
; 213  :    }
; 214  :    
; 215  :    return 0;

  00020	33 c0		 xor	 eax, eax
  00022	5e		 pop	 esi

; 216  : }

  00023	c3		 ret	 0
$LN10@remove@4:

; 211  :          return removeIndex(i);

  00024	51		 push	 ecx
  00025	e8 00 00 00 00	 call	 ?removeIndex@?$List@VDrone@@@@QAEPAVDrone@@H@Z ; List<Drone>::removeIndex
  0002a	5e		 pop	 esi

; 216  : }

  0002b	c3		 ret	 0
$LN5@remove@4:

; 207  :       return 0;

  0002c	33 c0		 xor	 eax, eax

; 216  : }

  0002e	c3		 ret	 0
?remove@?$List@VDrone@@@@QAEPAVDrone@@PBV2@@Z ENDP	; List<Drone>::remove
; Function compile flags: /Ogtp
_TEXT	ENDS
;	COMDAT ?remove@?$List@VElement@@@@QAEPAVElement@@PBV2@@Z
_TEXT	SEGMENT
?remove@?$List@VElement@@@@QAEPAVElement@@PBV2@@Z PROC	; List<Element>::remove, COMDAT
; _this$ = eax
; _val$ = edi

; 206  :    if (items == 0 || val == 0)

  00000	8b 10		 mov	 edx, DWORD PTR [eax]
  00002	85 d2		 test	 edx, edx
  00004	74 26		 je	 SHORT $LN5@remove@5
  00006	85 ff		 test	 edi, edi
  00008	74 22		 je	 SHORT $LN5@remove@5

; 208  : 
; 209  :    for (int i = 0; i < items; i++) {

  0000a	33 c9		 xor	 ecx, ecx
  0000c	56		 push	 esi
  0000d	85 d2		 test	 edx, edx
  0000f	7e 0f		 jle	 SHORT $LN2@remove@5
  00011	8b 70 08	 mov	 esi, DWORD PTR [eax+8]
$LL4@remove@5:

; 210  :       if (array[i] == val) {

  00014	39 3e		 cmp	 DWORD PTR [esi], edi
  00016	74 0c		 je	 SHORT $LN10@remove@5

; 208  : 
; 209  :    for (int i = 0; i < items; i++) {

  00018	41		 inc	 ecx
  00019	83 c6 04	 add	 esi, 4
  0001c	3b ca		 cmp	 ecx, edx
  0001e	7c f4		 jl	 SHORT $LL4@remove@5
$LN2@remove@5:

; 212  :       }
; 213  :    }
; 214  :    
; 215  :    return 0;

  00020	33 c0		 xor	 eax, eax
  00022	5e		 pop	 esi

; 216  : }

  00023	c3		 ret	 0
$LN10@remove@5:

; 211  :          return removeIndex(i);

  00024	51		 push	 ecx
  00025	e8 00 00 00 00	 call	 ?removeIndex@?$List@VElement@@@@QAEPAVElement@@H@Z ; List<Element>::removeIndex
  0002a	5e		 pop	 esi

; 216  : }

  0002b	c3		 ret	 0
$LN5@remove@5:

; 207  :       return 0;

  0002c	33 c0		 xor	 eax, eax

; 216  : }

  0002e	c3		 ret	 0
?remove@?$List@VElement@@@@QAEPAVElement@@PBV2@@Z ENDP	; List<Element>::remove
; Function compile flags: /Ogtp
_TEXT	ENDS
;	COMDAT ?at@?$List@VElement@@@@QAEAAPAVElement@@H@Z
_TEXT	SEGMENT
_index$ = 8						; size = 4
?at@?$List@VElement@@@@QAEAAPAVElement@@H@Z PROC	; List<Element>::at, COMDAT
; _this$ = eax

; 102  : {

  00000	55		 push	 ebp
  00001	8b ec		 mov	 ebp, esp
  00003	56		 push	 esi
  00004	57		 push	 edi
  00005	8b f0		 mov	 esi, eax

; 103  :    if (check(index))

  00007	8d 7d 08	 lea	 edi, DWORD PTR _index$[ebp]
  0000a	e8 00 00 00 00	 call	 ?check@?$List@VElement@@@@ABE_NAAH@Z ; List<Element>::check
  0000f	84 c0		 test	 al, al
  00011	74 0f		 je	 SHORT $LN3@at

; 104  :       return array[index];

  00013	8b 46 08	 mov	 eax, DWORD PTR [esi+8]
  00016	8b 4d 08	 mov	 ecx, DWORD PTR _index$[ebp]
  00019	5f		 pop	 edi
  0001a	8d 04 88	 lea	 eax, DWORD PTR [eax+ecx*4]
  0001d	5e		 pop	 esi

; 110  : }

  0001e	5d		 pop	 ebp
  0001f	c2 04 00	 ret	 4
$LN3@at:

; 105  : 
; 106  :    if (!array || !extent)

  00022	83 7e 08 00	 cmp	 DWORD PTR [esi+8], 0
  00026	74 06		 je	 SHORT $LN1@at
  00028	83 7e 04 00	 cmp	 DWORD PTR [esi+4], 0
  0002c	75 0a		 jne	 SHORT $LN2@at
$LN1@at:

; 107  :       resize(1);

  0002e	b8 01 00 00 00	 mov	 eax, 1
  00033	e8 00 00 00 00	 call	 ?resize@?$List@VElement@@@@AAEXH@Z ; List<Element>::resize
$LN2@at:

; 108  : 
; 109  :    return array[0];

  00038	8b 46 08	 mov	 eax, DWORD PTR [esi+8]
  0003b	5f		 pop	 edi
  0003c	5e		 pop	 esi

; 110  : }

  0003d	5d		 pop	 ebp
  0003e	c2 04 00	 ret	 4
?at@?$List@VElement@@@@QAEAAPAVElement@@H@Z ENDP	; List<Element>::at
; Function compile flags: /Ogtp
_TEXT	ENDS
;	COMDAT ??A?$List@VElement@@@@QAEAAPAVElement@@H@Z
_TEXT	SEGMENT
_index$ = 8						; size = 4
??A?$List@VElement@@@@QAEAAPAVElement@@H@Z PROC		; List<Element>::operator[], COMDAT
; _this$ = eax

; 82   : {

  00000	55		 push	 ebp
  00001	8b ec		 mov	 ebp, esp
  00003	56		 push	 esi
  00004	57		 push	 edi
  00005	8b f0		 mov	 esi, eax

; 83   :    if (check(index))

  00007	8d 7d 08	 lea	 edi, DWORD PTR _index$[ebp]
  0000a	e8 00 00 00 00	 call	 ?check@?$List@VElement@@@@ABE_NAAH@Z ; List<Element>::check
  0000f	84 c0		 test	 al, al
  00011	74 0f		 je	 SHORT $LN3@operator

; 84   :       return array[index];

  00013	8b 46 08	 mov	 eax, DWORD PTR [esi+8]
  00016	8b 4d 08	 mov	 ecx, DWORD PTR _index$[ebp]
  00019	5f		 pop	 edi
  0001a	8d 04 88	 lea	 eax, DWORD PTR [eax+ecx*4]
  0001d	5e		 pop	 esi

; 90   : }

  0001e	5d		 pop	 ebp
  0001f	c2 04 00	 ret	 4
$LN3@operator:

; 85   : 
; 86   :    if (!array || !extent)

  00022	83 7e 08 00	 cmp	 DWORD PTR [esi+8], 0
  00026	74 06		 je	 SHORT $LN1@operator
  00028	83 7e 04 00	 cmp	 DWORD PTR [esi+4], 0
  0002c	75 0a		 jne	 SHORT $LN2@operator
$LN1@operator:

; 87   :       resize(1);

  0002e	b8 01 00 00 00	 mov	 eax, 1
  00033	e8 00 00 00 00	 call	 ?resize@?$List@VElement@@@@AAEXH@Z ; List<Element>::resize
$LN2@operator:

; 88   : 
; 89   :    return array[0];

  00038	8b 46 08	 mov	 eax, DWORD PTR [esi+8]
  0003b	5f		 pop	 edi
  0003c	5e		 pop	 esi

; 90   : }

  0003d	5d		 pop	 ebp
  0003e	c2 04 00	 ret	 4
??A?$List@VElement@@@@QAEAAPAVElement@@H@Z ENDP		; List<Element>::operator[]
; Function compile flags: /Ogtp
; File c:\matrix games\source\foundationex\list.h
_TEXT	ENDS
;	COMDAT ??C?$ListIter@VAsteroid@@@@QAEPAVAsteroid@@XZ
_TEXT	SEGMENT
??C?$ListIter@VAsteroid@@@@QAEPAVAsteroid@@XZ PROC	; ListIter<Asteroid>::operator->, COMDAT
; _this$ = eax

; 86   :    T*  operator->() { return value();     }

  00000	e9 00 00 00 00	 jmp	 ?value@?$ListIter@VAsteroid@@@@QAEPAVAsteroid@@XZ ; ListIter<Asteroid>::value
??C?$ListIter@VAsteroid@@@@QAEPAVAsteroid@@XZ ENDP	; ListIter<Asteroid>::operator->
; Function compile flags: /Ogtp
_TEXT	ENDS
;	COMDAT ??C?$ListIter@VDebris@@@@QAEPAVDebris@@XZ
_TEXT	SEGMENT
??C?$ListIter@VDebris@@@@QAEPAVDebris@@XZ PROC		; ListIter<Debris>::operator->, COMDAT
; _this$ = eax

; 86   :    T*  operator->() { return value();     }

  00000	e9 00 00 00 00	 jmp	 ?value@?$ListIter@VDebris@@@@QAEPAVDebris@@XZ ; ListIter<Debris>::value
??C?$ListIter@VDebris@@@@QAEPAVDebris@@XZ ENDP		; ListIter<Debris>::operator->
; Function compile flags: /Ogtp
_TEXT	ENDS
;	COMDAT ??D?$ListIter@VText@@@@QAEAAVText@@XZ
_TEXT	SEGMENT
??D?$ListIter@VText@@@@QAEAAVText@@XZ PROC		; ListIter<Text>::operator*, COMDAT
; _this$ = ecx

; 87   :    T&  operator* () { return *value();    }

  00000	e9 00 00 00 00	 jmp	 ?value@?$ListIter@VText@@@@QAEPAVText@@XZ ; ListIter<Text>::value
??D?$ListIter@VText@@@@QAEAAVText@@XZ ENDP		; ListIter<Text>::operator*
; Function compile flags: /Ogtp
_TEXT	ENDS
;	COMDAT ??C?$ListIter@VSimRegion@@@@QAEPAVSimRegion@@XZ
_TEXT	SEGMENT
??C?$ListIter@VSimRegion@@@@QAEPAVSimRegion@@XZ PROC	; ListIter<SimRegion>::operator->, COMDAT
; _this$ = eax

; 86   :    T*  operator->() { return value();     }

  00000	e9 00 00 00 00	 jmp	 ?value@?$ListIter@VSimRegion@@@@QAEPAVSimRegion@@XZ ; ListIter<SimRegion>::value
??C?$ListIter@VSimRegion@@@@QAEPAVSimRegion@@XZ ENDP	; ListIter<SimRegion>::operator->
_TEXT	ENDS
PUBLIC	?FormatGameTime@@YAPBDXZ			; FormatGameTime
;	COMDAT ?txt@?1??FormatGameTime@@YAPBDXZ@4PADA
; File c:\matrix games\source\stars45\sim.cpp
_BSS	SEGMENT
?txt@?1??FormatGameTime@@YAPBDXZ@4PADA DB 040H DUP (?)	; `FormatGameTime'::`2'::txt
; Function compile flags: /Ogtp
_BSS	ENDS
;	COMDAT ?FormatGameTime@@YAPBDXZ
_TEXT	SEGMENT
?FormatGameTime@@YAPBDXZ PROC				; FormatGameTime, COMDAT

; 3800 : {

  00000	53		 push	 ebx
  00001	56		 push	 esi
  00002	57		 push	 edi

; 3801 : 	static char txt[64];
; 3802 : 
; 3803 : 	int t = Game::GameTime();

  00003	e8 00 00 00 00	 call	 ?GameTime@Game@@SAKXZ	; Game::GameTime
  00008	8b f0		 mov	 esi, eax

; 3804 : 
; 3805 : 	int h = ( t                        / 3600000);

  0000a	b8 59 be 90 4a	 mov	 eax, 1250999897		; 4a90be59H
  0000f	f7 ee		 imul	 esi
  00011	c1 fa 14	 sar	 edx, 20			; 00000014H
  00014	8b ca		 mov	 ecx, edx
  00016	c1 e9 1f	 shr	 ecx, 31			; 0000001fH
  00019	03 ca		 add	 ecx, edx

; 3806 : 	int m = ((t - h*3600000)           /   60000);

  0001b	8b c1		 mov	 eax, ecx
  0001d	69 c0 80 ee 36
	00		 imul	 eax, 3600000		; 0036ee80H
  00023	8b d6		 mov	 edx, esi
  00025	2b d0		 sub	 edx, eax
  00027	b8 73 b2 e7 45	 mov	 eax, 1172812403		; 45e7b273H
  0002c	f7 ea		 imul	 edx
  0002e	c1 fa 0e	 sar	 edx, 14			; 0000000eH
  00031	8b fa		 mov	 edi, edx
  00033	c1 ef 1f	 shr	 edi, 31			; 0000001fH
  00036	03 fa		 add	 edi, edx

; 3807 : 	int s = ((t - h*3600000 - m*60000) /    1000);

  00038	8b d1		 mov	 edx, ecx
  0003a	c1 e2 04	 shl	 edx, 4
  0003d	2b d1		 sub	 edx, ecx
  0003f	8d 1c 97	 lea	 ebx, DWORD PTR [edi+edx*4]
  00042	8b c3		 mov	 eax, ebx
  00044	69 c0 60 ea 00
	00		 imul	 eax, 60000		; 0000ea60H
  0004a	8b d6		 mov	 edx, esi
  0004c	2b d0		 sub	 edx, eax
  0004e	b8 d3 4d 62 10	 mov	 eax, 274877907		; 10624dd3H
  00053	f7 ea		 imul	 edx
  00055	c1 fa 06	 sar	 edx, 6
  00058	8b c2		 mov	 eax, edx
  0005a	c1 e8 1f	 shr	 eax, 31			; 0000001fH
  0005d	03 c2		 add	 eax, edx

; 3808 : 	int e = ( t - h*3600000 - m*60000 - s*1000);

  0005f	8b d3		 mov	 edx, ebx
  00061	c1 e2 04	 shl	 edx, 4
  00064	2b d3		 sub	 edx, ebx
  00066	8d 14 90	 lea	 edx, DWORD PTR [eax+edx*4]
  00069	69 d2 e8 03 00
	00		 imul	 edx, 1000		; 000003e8H
  0006f	2b f2		 sub	 esi, edx

; 3809 : 
; 3810 : 	if (h > 0)
; 3811 : 	sprintf_s(txt, "%02d:%02d:%02d.%03d", h,m,s,e);

  00071	56		 push	 esi
  00072	50		 push	 eax
  00073	57		 push	 edi
  00074	85 c9		 test	 ecx, ecx
  00076	7e 1c		 jle	 SHORT $LN2@FormatGame
  00078	51		 push	 ecx
  00079	68 00 00 00 00	 push	 OFFSET ??_C@_0BE@MNIJIMLO@?$CF02d?3?$CF02d?3?$CF02d?4?$CF03d?$AA@
  0007e	68 00 00 00 00	 push	 OFFSET ?txt@?1??FormatGameTime@@YAPBDXZ@4PADA
  00083	e8 00 00 00 00	 call	 ??$sprintf_s@$0EA@@@YAHAAY0EA@DPBDZZ ; sprintf_s<64>
  00088	83 c4 18	 add	 esp, 24			; 00000018H
  0008b	5f		 pop	 edi
  0008c	5e		 pop	 esi

; 3814 : 
; 3815 : 	return txt;

  0008d	b8 00 00 00 00	 mov	 eax, OFFSET ?txt@?1??FormatGameTime@@YAPBDXZ@4PADA
  00092	5b		 pop	 ebx

; 3816 : }

  00093	c3		 ret	 0
$LN2@FormatGame:

; 3812 : 	else
; 3813 : 	sprintf_s(txt, "%02d:%02d.%03d", m,s,e);

  00094	68 00 00 00 00	 push	 OFFSET ??_C@_0P@GCEINJHL@?$CF02d?3?$CF02d?4?$CF03d?$AA@
  00099	68 00 00 00 00	 push	 OFFSET ?txt@?1??FormatGameTime@@YAPBDXZ@4PADA
  0009e	e8 00 00 00 00	 call	 ??$sprintf_s@$0EA@@@YAHAAY0EA@DPBDZZ ; sprintf_s<64>
  000a3	83 c4 14	 add	 esp, 20			; 00000014H
  000a6	5f		 pop	 edi
  000a7	5e		 pop	 esi

; 3814 : 
; 3815 : 	return txt;

  000a8	b8 00 00 00 00	 mov	 eax, OFFSET ?txt@?1??FormatGameTime@@YAPBDXZ@4PADA
  000ad	5b		 pop	 ebx

; 3816 : }

  000ae	c3		 ret	 0
?FormatGameTime@@YAPBDXZ ENDP				; FormatGameTime
_TEXT	ENDS
PUBLIC	?TrackList@SimRegion@@QAEAAV?$List@VContact@@@@H@Z ; SimRegion::TrackList
;	COMDAT ?empty@?3??TrackList@SimRegion@@QAEAAV?$List@VContact@@@@H@Z@4V3@A
; File c:\matrix games\source\foundationex\list.h
_BSS	SEGMENT
?empty@?3??TrackList@SimRegion@@QAEAAV?$List@VContact@@@@H@Z@4V3@A DB 0cH DUP (?) ; `SimRegion::TrackList'::`4'::empty
_BSS	ENDS
;	COMDAT ?$S3@?3??TrackList@SimRegion@@QAEAAV?$List@VContact@@@@H@Z@4IA
_BSS	SEGMENT
?$S3@?3??TrackList@SimRegion@@QAEAAV?$List@VContact@@@@H@Z@4IA DD 01H DUP (?) ; `SimRegion::TrackList'::`4'::$S3
; Function compile flags: /Ogtp
; File c:\matrix games\source\stars45\sim.cpp
_BSS	ENDS
;	COMDAT ?TrackList@SimRegion@@QAEAAV?$List@VContact@@@@H@Z
_TEXT	SEGMENT
?TrackList@SimRegion@@QAEAAV?$List@VContact@@@@H@Z PROC	; SimRegion::TrackList, COMDAT
; _this$ = ecx
; _iff$ = eax

; 3538 : 	if (iff >= 0 && iff < 5)

  00000	83 f8 04	 cmp	 eax, 4
  00003	77 0b		 ja	 SHORT $LN2@TrackList

; 3539 : 	return track_database[iff];

  00005	8d 04 40	 lea	 eax, DWORD PTR [eax+eax*2]
  00008	8d 84 81 b8 00
	00 00		 lea	 eax, DWORD PTR [ecx+eax*4+184]

; 3543 : }

  0000f	c3		 ret	 0
$LN2@TrackList:

; 3540 : 
; 3541 : 	static List<Contact> empty;

  00010	b8 01 00 00 00	 mov	 eax, 1
  00015	84 05 00 00 00
	00		 test	 BYTE PTR ?$S3@?3??TrackList@SimRegion@@QAEAAV?$List@VContact@@@@H@Z@4IA, al
  0001b	75 24		 jne	 SHORT $LN1@TrackList
  0001d	09 05 00 00 00
	00		 or	 DWORD PTR ?$S3@?3??TrackList@SimRegion@@QAEAAV?$List@VContact@@@@H@Z@4IA, eax
  00023	33 c0		 xor	 eax, eax
  00025	68 00 00 00 00	 push	 OFFSET ??__Fempty@?3??TrackList@SimRegion@@QAEAAV?$List@VContact@@@@H@Z@YAXXZ ; `SimRegion::TrackList'::`4'::`dynamic atexit destructor for 'empty''
  0002a	a3 00 00 00 00	 mov	 DWORD PTR ?empty@?3??TrackList@SimRegion@@QAEAAV?$List@VContact@@@@H@Z@4V3@A, eax
  0002f	a3 04 00 00 00	 mov	 DWORD PTR ?empty@?3??TrackList@SimRegion@@QAEAAV?$List@VContact@@@@H@Z@4V3@A+4, eax
  00034	a3 08 00 00 00	 mov	 DWORD PTR ?empty@?3??TrackList@SimRegion@@QAEAAV?$List@VContact@@@@H@Z@4V3@A+8, eax
  00039	e8 00 00 00 00	 call	 _atexit
  0003e	83 c4 04	 add	 esp, 4
$LN1@TrackList:

; 3542 : 	return empty;

  00041	b8 00 00 00 00	 mov	 eax, OFFSET ?empty@?3??TrackList@SimRegion@@QAEAAV?$List@VContact@@@@H@Z@4V3@A

; 3543 : }

  00046	c3		 ret	 0
?TrackList@SimRegion@@QAEAAV?$List@VContact@@@@H@Z ENDP	; SimRegion::TrackList
; Function compile flags: /Ogtp
_TEXT	ENDS
;	COMDAT ?FindShotByObjID@SimRegion@@UAEPAVShot@@K@Z
_TEXT	SEGMENT
_drone_iter$121494 = -8					; size = 8
_shot_iter$ = -8					; size = 8
_objid$ = 8						; size = 4
?FindShotByObjID@SimRegion@@UAEPAVShot@@K@Z PROC	; SimRegion::FindShotByObjID, COMDAT
; _this$ = ecx

; 3324 : {

  00000	55		 push	 ebp
  00001	8b ec		 mov	 ebp, esp
  00003	83 e4 f8	 and	 esp, -8			; fffffff8H
  00006	83 ec 0c	 sub	 esp, 12			; 0000000cH
  00009	53		 push	 ebx
  0000a	56		 push	 esi
  0000b	8b d9		 mov	 ebx, ecx

; 3325 : 	Shot* shot = 0;
; 3326 : 
; 3327 : 	ListIter<Shot> shot_iter = shots;

  0000d	8d 43 7c	 lea	 eax, DWORD PTR [ebx+124]
  00010	57		 push	 edi

; 3328 : 	while (++shot_iter && !shot) {

  00011	8d 54 24 10	 lea	 edx, DWORD PTR _shot_iter$[esp+24]
  00015	33 f6		 xor	 esi, esi
  00017	89 44 24 10	 mov	 DWORD PTR _shot_iter$[esp+24], eax
  0001b	c7 44 24 14 ff
	ff ff ff	 mov	 DWORD PTR _shot_iter$[esp+28], -1
  00023	e8 00 00 00 00	 call	 ?next@?$ListIter@VShot@@@@QAEPAVShot@@XZ ; ListIter<Shot>::next
  00028	85 c0		 test	 eax, eax
  0002a	74 32		 je	 SHORT $LN20@FindShotBy
$LN7@FindShotBy:
  0002c	85 f6		 test	 esi, esi
  0002e	75 7b		 jne	 SHORT $LN24@FindShotBy

; 3329 : 		Shot* test = shot_iter.value();

  00030	8d 44 24 10	 lea	 eax, DWORD PTR _shot_iter$[esp+24]
  00034	e8 00 00 00 00	 call	 ?value@?$ListIter@VShot@@@@QAEPAVShot@@XZ ; ListIter<Shot>::value
  00039	8b f8		 mov	 edi, eax

; 3330 : 		if (test->GetObjID() == objid)

  0003b	8b 17		 mov	 edx, DWORD PTR [edi]
  0003d	8b 82 ac 00 00
	00		 mov	 eax, DWORD PTR [edx+172]
  00043	8b cf		 mov	 ecx, edi
  00045	ff d0		 call	 eax
  00047	3b 45 08	 cmp	 eax, DWORD PTR _objid$[ebp]
  0004a	8d 54 24 10	 lea	 edx, DWORD PTR _shot_iter$[esp+24]

; 3331 : 		shot = test;

  0004e	0f 44 f7	 cmove	 esi, edi
  00051	e8 00 00 00 00	 call	 ?next@?$ListIter@VShot@@@@QAEPAVShot@@XZ ; ListIter<Shot>::next
  00056	85 c0		 test	 eax, eax
  00058	75 d2		 jne	 SHORT $LN7@FindShotBy

; 3332 : 	}
; 3333 : 
; 3334 : 	if (!shot) {

  0005a	85 f6		 test	 esi, esi
  0005c	75 4d		 jne	 SHORT $LN24@FindShotBy
$LN20@FindShotBy:

; 3335 : 		ListIter<Drone> drone_iter = drones;

  0005e	81 c3 88 00 00
	00		 add	 ebx, 136		; 00000088H

; 3336 : 		while (++drone_iter && !shot) {

  00064	8d 54 24 10	 lea	 edx, DWORD PTR _drone_iter$121494[esp+24]
  00068	89 5c 24 10	 mov	 DWORD PTR _drone_iter$121494[esp+24], ebx
  0006c	c7 44 24 14 ff
	ff ff ff	 mov	 DWORD PTR _drone_iter$121494[esp+28], -1
  00074	e8 00 00 00 00	 call	 ?next@?$ListIter@VDrone@@@@QAEPAVDrone@@XZ ; ListIter<Drone>::next
  00079	85 c0		 test	 eax, eax
  0007b	74 2e		 je	 SHORT $LN24@FindShotBy
$LN3@FindShotBy:
  0007d	85 f6		 test	 esi, esi
  0007f	75 2a		 jne	 SHORT $LN24@FindShotBy

; 3337 : 			Drone* test = drone_iter.value();

  00081	8d 44 24 10	 lea	 eax, DWORD PTR _drone_iter$121494[esp+24]
  00085	e8 00 00 00 00	 call	 ?value@?$ListIter@VDrone@@@@QAEPAVDrone@@XZ ; ListIter<Drone>::value
  0008a	8b f8		 mov	 edi, eax

; 3338 : 			if (test->GetObjID() == objid)

  0008c	8b 17		 mov	 edx, DWORD PTR [edi]
  0008e	8b 82 ac 00 00
	00		 mov	 eax, DWORD PTR [edx+172]
  00094	8b cf		 mov	 ecx, edi
  00096	ff d0		 call	 eax
  00098	3b 45 08	 cmp	 eax, DWORD PTR _objid$[ebp]
  0009b	8d 54 24 10	 lea	 edx, DWORD PTR _drone_iter$121494[esp+24]

; 3339 : 			shot = test;

  0009f	0f 44 f7	 cmove	 esi, edi
  000a2	e8 00 00 00 00	 call	 ?next@?$ListIter@VDrone@@@@QAEPAVDrone@@XZ ; ListIter<Drone>::next
  000a7	85 c0		 test	 eax, eax
  000a9	75 d2		 jne	 SHORT $LN3@FindShotBy
$LN24@FindShotBy:

; 3340 : 		}
; 3341 : 	}
; 3342 : 
; 3343 : 	return shot;
; 3344 : }

  000ab	5f		 pop	 edi
  000ac	8b c6		 mov	 eax, esi
  000ae	5e		 pop	 esi
  000af	5b		 pop	 ebx
  000b0	8b e5		 mov	 esp, ebp
  000b2	5d		 pop	 ebp
  000b3	c2 04 00	 ret	 4
?FindShotByObjID@SimRegion@@UAEPAVShot@@K@Z ENDP	; SimRegion::FindShotByObjID
; Function compile flags: /Ogtp
_TEXT	ENDS
;	COMDAT ?FindShipByObjID@SimRegion@@UAEPAVShip@@K@Z
_TEXT	SEGMENT
_ship_iter$ = -8					; size = 8
_objid$ = 8						; size = 4
?FindShipByObjID@SimRegion@@UAEPAVShip@@K@Z PROC	; SimRegion::FindShipByObjID, COMDAT
; _this$ = ecx

; 3309 : {

  00000	55		 push	 ebp
  00001	8b ec		 mov	 ebp, esp
  00003	83 e4 f8	 and	 esp, -8			; fffffff8H
  00006	83 ec 0c	 sub	 esp, 12			; 0000000cH
  00009	53		 push	 ebx
  0000a	56		 push	 esi

; 3310 : 	Ship* ship = 0;
; 3311 : 
; 3312 : 	ListIter<Ship> ship_iter = ships;

  0000b	83 c1 4c	 add	 ecx, 76			; 0000004cH
  0000e	57		 push	 edi

; 3313 : 	while (++ship_iter && !ship) {

  0000f	8d 54 24 10	 lea	 edx, DWORD PTR _ship_iter$[esp+24]
  00013	33 ff		 xor	 edi, edi
  00015	89 4c 24 10	 mov	 DWORD PTR _ship_iter$[esp+24], ecx
  00019	c7 44 24 14 ff
	ff ff ff	 mov	 DWORD PTR _ship_iter$[esp+28], -1
  00021	e8 00 00 00 00	 call	 ?next@?$ListIter@VShip@@@@QAEPAVShip@@XZ ; ListIter<Ship>::next
  00026	85 c0		 test	 eax, eax
  00028	74 30		 je	 SHORT $LN12@FindShipBy
  0002a	8b 5d 08	 mov	 ebx, DWORD PTR _objid$[ebp]
$LN3@FindShipBy:
  0002d	85 ff		 test	 edi, edi
  0002f	75 29		 jne	 SHORT $LN12@FindShipBy

; 3314 : 		Ship* test = ship_iter.value();

  00031	8d 44 24 10	 lea	 eax, DWORD PTR _ship_iter$[esp+24]
  00035	e8 00 00 00 00	 call	 ?value@?$ListIter@VShip@@@@QAEPAVShip@@XZ ; ListIter<Ship>::value
  0003a	8b f0		 mov	 esi, eax

; 3315 : 		if (test->GetObjID() == objid)

  0003c	8b 06		 mov	 eax, DWORD PTR [esi]
  0003e	8b 90 ac 00 00
	00		 mov	 edx, DWORD PTR [eax+172]
  00044	8b ce		 mov	 ecx, esi
  00046	ff d2		 call	 edx
  00048	3b c3		 cmp	 eax, ebx
  0004a	8d 54 24 10	 lea	 edx, DWORD PTR _ship_iter$[esp+24]

; 3316 : 		ship = test;

  0004e	0f 44 fe	 cmove	 edi, esi
  00051	e8 00 00 00 00	 call	 ?next@?$ListIter@VShip@@@@QAEPAVShip@@XZ ; ListIter<Ship>::next
  00056	85 c0		 test	 eax, eax
  00058	75 d3		 jne	 SHORT $LN3@FindShipBy
$LN12@FindShipBy:

; 3317 : 	}
; 3318 : 
; 3319 : 	return ship;

  0005a	8b c7		 mov	 eax, edi

; 3320 : }

  0005c	5f		 pop	 edi
  0005d	5e		 pop	 esi
  0005e	5b		 pop	 ebx
  0005f	8b e5		 mov	 esp, ebp
  00061	5d		 pop	 ebp
  00062	c2 04 00	 ret	 4
?FindShipByObjID@SimRegion@@UAEPAVShip@@K@Z ENDP	; SimRegion::FindShipByObjID
_TEXT	ENDS
PUBLIC	?FindShip@SimRegion@@QAEPAVShip@@PBD@Z		; SimRegion::FindShip
; Function compile flags: /Ogtp
;	COMDAT ?FindShip@SimRegion@@QAEPAVShip@@PBD@Z
_TEXT	SEGMENT
_ship_iter$121460 = -12					; size = 8
_ship$ = -4						; size = 4
_this$ = 8						; size = 4
_ship_name$ = 12					; size = 4
?FindShip@SimRegion@@QAEPAVShip@@PBD@Z PROC		; SimRegion::FindShip, COMDAT

; 3280 : {

  00000	55		 push	 ebp
  00001	8b ec		 mov	 ebp, esp
  00003	83 ec 0c	 sub	 esp, 12			; 0000000cH

; 3281 : 	Ship* ship = 0;
; 3282 : 
; 3283 : 	if (ship_name && *ship_name) {

  00006	8b 45 0c	 mov	 eax, DWORD PTR _ship_name$[ebp]
  00009	53		 push	 ebx
  0000a	56		 push	 esi
  0000b	33 f6		 xor	 esi, esi
  0000d	57		 push	 edi
  0000e	89 75 fc	 mov	 DWORD PTR _ship$[ebp], esi
  00011	85 c0		 test	 eax, eax
  00013	74 32		 je	 SHORT $LN25@FindShip
  00015	80 38 00	 cmp	 BYTE PTR [eax], 0
  00018	74 2d		 je	 SHORT $LN25@FindShip

; 3284 : 		int   name_len = strlen(ship_name);

  0001a	8d 50 01	 lea	 edx, DWORD PTR [eax+1]
  0001d	8d 49 00	 npad	 3
$LL20@FindShip:
  00020	8a 08		 mov	 cl, BYTE PTR [eax]
  00022	40		 inc	 eax
  00023	84 c9		 test	 cl, cl
  00025	75 f9		 jne	 SHORT $LL20@FindShip
  00027	2b c2		 sub	 eax, edx
  00029	8b d8		 mov	 ebx, eax

; 3285 : 
; 3286 : 		ListIter<Ship> ship_iter = ships;

  0002b	8b 45 08	 mov	 eax, DWORD PTR _this$[ebp]
  0002e	83 c0 4c	 add	 eax, 76			; 0000004cH

; 3287 : 		while (++ship_iter && !ship) {

  00031	8d 55 f4	 lea	 edx, DWORD PTR _ship_iter$121460[ebp]
  00034	89 45 f4	 mov	 DWORD PTR _ship_iter$121460[ebp], eax
  00037	c7 45 f8 ff ff
	ff ff		 mov	 DWORD PTR _ship_iter$121460[ebp+4], -1
  0003e	e8 00 00 00 00	 call	 ?next@?$ListIter@VShip@@@@QAEPAVShip@@XZ ; ListIter<Ship>::next
  00043	85 c0		 test	 eax, eax
  00045	75 0e		 jne	 SHORT $LN4@FindShip
$LN25@FindShip:

; 3300 : 			}
; 3301 : 		}
; 3302 : 	}
; 3303 : 
; 3304 : 	return ship;

  00047	8b c6		 mov	 eax, esi

; 3305 : }

  00049	5f		 pop	 edi
  0004a	5e		 pop	 esi
  0004b	5b		 pop	 ebx
  0004c	8b e5		 mov	 esp, ebp
  0004e	5d		 pop	 ebp
  0004f	c2 08 00	 ret	 8
$LL26@FindShip:

; 3287 : 		while (++ship_iter && !ship) {

  00052	8b 75 fc	 mov	 esi, DWORD PTR _ship$[ebp]
$LN4@FindShip:
  00055	85 f6		 test	 esi, esi
  00057	75 ee		 jne	 SHORT $LN25@FindShip

; 3288 : 			Ship* test = ship_iter.value();

  00059	8d 45 f4	 lea	 eax, DWORD PTR _ship_iter$121460[ebp]
  0005c	e8 00 00 00 00	 call	 ?value@?$ListIter@VShip@@@@QAEPAVShip@@XZ ; ListIter<Ship>::value

; 3289 : 			if (!strncmp(test->Name(), ship_name, name_len)) {

  00061	8b 4d 0c	 mov	 ecx, DWORD PTR _ship_name$[ebp]
  00064	8b f8		 mov	 edi, eax
  00066	53		 push	 ebx
  00067	51		 push	 ecx
  00068	8d 77 10	 lea	 esi, DWORD PTR [edi+16]
  0006b	56		 push	 esi
  0006c	e8 00 00 00 00	 call	 _strncmp
  00071	83 c4 0c	 add	 esp, 12			; 0000000cH
  00074	85 c0		 test	 eax, eax
  00076	75 1f		 jne	 SHORT $LN2@FindShip

; 3290 : 				int test_len = strlen(test->Name());

  00078	8b c6		 mov	 eax, esi
  0007a	8d 50 01	 lea	 edx, DWORD PTR [eax+1]
  0007d	8d 49 00	 npad	 3
$LL21@FindShip:
  00080	8a 08		 mov	 cl, BYTE PTR [eax]
  00082	40		 inc	 eax
  00083	84 c9		 test	 cl, cl
  00085	75 f9		 jne	 SHORT $LL21@FindShip
  00087	2b c2		 sub	 eax, edx

; 3291 : 
; 3292 : 				// The only fuzzy match is for element indices.
; 3293 : 				// The desired name "Alpha" matches "Alpha 1" and "Alpha 2"
; 3294 : 				// but not "Alpha-Centauri"
; 3295 : 
; 3296 : 				if (test_len > name_len && test->Name()[name_len] != ' ')

  00089	3b c3		 cmp	 eax, ebx
  0008b	7e 07		 jle	 SHORT $LN1@FindShip
  0008d	80 7c 1f 10 20	 cmp	 BYTE PTR [edi+ebx+16], 32 ; 00000020H
  00092	75 03		 jne	 SHORT $LN2@FindShip
$LN1@FindShip:

; 3297 : 				continue;
; 3298 : 
; 3299 : 				ship = test;

  00094	89 7d fc	 mov	 DWORD PTR _ship$[ebp], edi
$LN2@FindShip:

; 3287 : 		while (++ship_iter && !ship) {

  00097	8d 55 f4	 lea	 edx, DWORD PTR _ship_iter$121460[ebp]
  0009a	e8 00 00 00 00	 call	 ?next@?$ListIter@VShip@@@@QAEPAVShip@@XZ ; ListIter<Ship>::next
  0009f	85 c0		 test	 eax, eax
  000a1	75 af		 jne	 SHORT $LL26@FindShip

; 3300 : 			}
; 3301 : 		}
; 3302 : 	}
; 3303 : 
; 3304 : 	return ship;

  000a3	8b 45 fc	 mov	 eax, DWORD PTR _ship$[ebp]

; 3305 : }

  000a6	5f		 pop	 edi
  000a7	5e		 pop	 esi
  000a8	5b		 pop	 ebx
  000a9	8b e5		 mov	 esp, ebp
  000ab	5d		 pop	 ebp
  000ac	c2 08 00	 ret	 8
?FindShip@SimRegion@@QAEPAVShip@@PBD@Z ENDP		; SimRegion::FindShip
_TEXT	ENDS
PUBLIC	?UpdateExplosions@SimRegion@@IAEXN@Z		; SimRegion::UpdateExplosions
; Function compile flags: /Ogtp
;	COMDAT ?UpdateExplosions@SimRegion@@IAEXN@Z
_TEXT	SEGMENT
_debris_iter$ = -8					; size = 8
_exp_iter$ = -8						; size = 8
_seconds$ = 8						; size = 8
?UpdateExplosions@SimRegion@@IAEXN@Z PROC		; SimRegion::UpdateExplosions, COMDAT
; _this$ = eax

; 2667 : {

  00000	55		 push	 ebp
  00001	8b ec		 mov	 ebp, esp
  00003	83 ec 08	 sub	 esp, 8
  00006	56		 push	 esi
  00007	57		 push	 edi
  00008	8b f8		 mov	 edi, eax

; 2668 : 	ListIter<Explosion> exp_iter = explosions;

  0000a	8d 87 94 00 00
	00		 lea	 eax, DWORD PTR [edi+148]

; 2669 : 	while (++exp_iter) {

  00010	8d 55 f8	 lea	 edx, DWORD PTR _exp_iter$[ebp]
  00013	89 45 f8	 mov	 DWORD PTR _exp_iter$[ebp], eax
  00016	c7 45 fc ff ff
	ff ff		 mov	 DWORD PTR _exp_iter$[ebp+4], -1
  0001d	e8 00 00 00 00	 call	 ?next@?$ListIter@VExplosion@@@@QAEPAVExplosion@@XZ ; ListIter<Explosion>::next
  00022	85 c0		 test	 eax, eax
  00024	74 50		 je	 SHORT $LN5@UpdateExpl
$LL6@UpdateExpl:

; 2670 : 		Explosion* exp = exp_iter.value();

  00026	8d 45 f8	 lea	 eax, DWORD PTR _exp_iter$[ebp]
  00029	e8 00 00 00 00	 call	 ?value@?$ListIter@VExplosion@@@@QAEPAVExplosion@@XZ ; ListIter<Explosion>::value

; 2671 : 		exp->ExecFrame(seconds);

  0002e	f2 0f 10 45 08	 movsd	 xmm0, QWORD PTR _seconds$[ebp]
  00033	8b f0		 mov	 esi, eax
  00035	8b 16		 mov	 edx, DWORD PTR [esi]
  00037	8b 42 04	 mov	 eax, DWORD PTR [edx+4]
  0003a	83 ec 08	 sub	 esp, 8
  0003d	8b ce		 mov	 ecx, esi
  0003f	f2 0f 11 04 24	 movsd	 QWORD PTR [esp], xmm0
  00044	ff d0		 call	 eax

; 2672 : 
; 2673 : 		if (exp->Life() < 0.01) {  // died of old age

  00046	f2 0f 10 05 00
	00 00 00	 movsd	 xmm0, QWORD PTR __real@3f847ae147ae147b
  0004e	66 0f 2f 86 a8
	01 00 00	 comisd	 xmm0, QWORD PTR [esi+424]
  00056	76 12		 jbe	 SHORT $LN9@UpdateExpl

; 2674 : 			exp_iter.removeItem();

  00058	8d 55 f8	 lea	 edx, DWORD PTR _exp_iter$[ebp]
  0005b	e8 00 00 00 00	 call	 ?removeItem@?$ListIter@VExplosion@@@@QAEPAVExplosion@@XZ ; ListIter<Explosion>::removeItem

; 2675 : 			delete exp;

  00060	8b 16		 mov	 edx, DWORD PTR [esi]
  00062	8b 02		 mov	 eax, DWORD PTR [edx]
  00064	6a 01		 push	 1
  00066	8b ce		 mov	 ecx, esi
  00068	ff d0		 call	 eax
$LN9@UpdateExpl:

; 2669 : 	while (++exp_iter) {

  0006a	8d 55 f8	 lea	 edx, DWORD PTR _exp_iter$[ebp]
  0006d	e8 00 00 00 00	 call	 ?next@?$ListIter@VExplosion@@@@QAEPAVExplosion@@XZ ; ListIter<Explosion>::next
  00072	85 c0		 test	 eax, eax
  00074	75 b0		 jne	 SHORT $LL6@UpdateExpl
$LN5@UpdateExpl:

; 2676 : 		}
; 2677 : 	}
; 2678 : 
; 2679 : 	ListIter<Debris> debris_iter = debris;

  00076	81 c7 a0 00 00
	00		 add	 edi, 160		; 000000a0H

; 2680 : 	while (++debris_iter) {

  0007c	8d 55 f8	 lea	 edx, DWORD PTR _debris_iter$[ebp]
  0007f	89 7d f8	 mov	 DWORD PTR _debris_iter$[ebp], edi
  00082	c7 45 fc ff ff
	ff ff		 mov	 DWORD PTR _debris_iter$[ebp+4], -1
  00089	e8 00 00 00 00	 call	 ?next@?$ListIter@VDebris@@@@QAEPAVDebris@@XZ ; ListIter<Debris>::next
  0008e	85 c0		 test	 eax, eax
  00090	74 50		 je	 SHORT $LN2@UpdateExpl
$LL3@UpdateExpl:

; 2681 : 		Debris* d = debris_iter.value();

  00092	8d 45 f8	 lea	 eax, DWORD PTR _debris_iter$[ebp]
  00095	e8 00 00 00 00	 call	 ?value@?$ListIter@VDebris@@@@QAEPAVDebris@@XZ ; ListIter<Debris>::value

; 2682 : 		d->ExecFrame(seconds);

  0009a	f2 0f 10 45 08	 movsd	 xmm0, QWORD PTR _seconds$[ebp]
  0009f	8b f0		 mov	 esi, eax
  000a1	8b 16		 mov	 edx, DWORD PTR [esi]
  000a3	8b 42 04	 mov	 eax, DWORD PTR [edx+4]
  000a6	83 ec 08	 sub	 esp, 8
  000a9	8b ce		 mov	 ecx, esi
  000ab	f2 0f 11 04 24	 movsd	 QWORD PTR [esp], xmm0
  000b0	ff d0		 call	 eax

; 2683 : 
; 2684 : 		if (d->Life() < 0.01) {  // died of old age

  000b2	f2 0f 10 05 00
	00 00 00	 movsd	 xmm0, QWORD PTR __real@3f847ae147ae147b
  000ba	66 0f 2f 86 a8
	01 00 00	 comisd	 xmm0, QWORD PTR [esi+424]
  000c2	76 12		 jbe	 SHORT $LN11@UpdateExpl

; 2685 : 			debris_iter.removeItem();

  000c4	8d 55 f8	 lea	 edx, DWORD PTR _debris_iter$[ebp]
  000c7	e8 00 00 00 00	 call	 ?removeItem@?$ListIter@VDebris@@@@QAEPAVDebris@@XZ ; ListIter<Debris>::removeItem

; 2686 : 			delete d;

  000cc	8b 16		 mov	 edx, DWORD PTR [esi]
  000ce	8b 02		 mov	 eax, DWORD PTR [edx]
  000d0	6a 01		 push	 1
  000d2	8b ce		 mov	 ecx, esi
  000d4	ff d0		 call	 eax
$LN11@UpdateExpl:

; 2680 : 	while (++debris_iter) {

  000d6	8d 55 f8	 lea	 edx, DWORD PTR _debris_iter$[ebp]
  000d9	e8 00 00 00 00	 call	 ?next@?$ListIter@VDebris@@@@QAEPAVDebris@@XZ ; ListIter<Debris>::next
  000de	85 c0		 test	 eax, eax
  000e0	75 b0		 jne	 SHORT $LL3@UpdateExpl
$LN2@UpdateExpl:

; 2687 : 		}
; 2688 : 	}
; 2689 : }

  000e2	5f		 pop	 edi
  000e3	5e		 pop	 esi
  000e4	8b e5		 mov	 esp, ebp
  000e6	5d		 pop	 ebp
  000e7	c2 08 00	 ret	 8
?UpdateExplosions@SimRegion@@IAEXN@Z ENDP		; SimRegion::UpdateExplosions
_TEXT	ENDS
PUBLIC	?UpdateShips@SimRegion@@IAEXN@Z			; SimRegion::UpdateShips
; Function compile flags: /Ogtp
;	COMDAT ?UpdateShips@SimRegion@@IAEXN@Z
_TEXT	SEGMENT
_ship_iter$ = -8					; size = 8
_seconds$ = 8						; size = 8
?UpdateShips@SimRegion@@IAEXN@Z PROC			; SimRegion::UpdateShips, COMDAT
; _this$ = esi

; 2608 : {

  00000	55		 push	 ebp
  00001	8b ec		 mov	 ebp, esp

; 2609 : 	int ship_index = 0;
; 2610 : 	if (ai_index > ships.size())

  00003	8b 8e 04 01 00
	00		 mov	 ecx, DWORD PTR [esi+260]
  00009	83 ec 0c	 sub	 esp, 12			; 0000000cH
  0000c	57		 push	 edi
  0000d	8d 46 4c	 lea	 eax, DWORD PTR [esi+76]
  00010	33 ff		 xor	 edi, edi
  00012	3b 08		 cmp	 ecx, DWORD PTR [eax]
  00014	7e 06		 jle	 SHORT $LN6@UpdateShip

; 2611 : 	ai_index = 0;

  00016	89 be 04 01 00
	00		 mov	 DWORD PTR [esi+260], edi
$LN6@UpdateShip:

; 2612 : 
; 2613 : 	ListIter<Ship> ship_iter = ships;
; 2614 : 	Ship* ship = 0;
; 2615 : 
; 2616 : 	while (++ship_iter) {

  0001c	8d 55 f8	 lea	 edx, DWORD PTR _ship_iter$[ebp]
  0001f	89 45 f8	 mov	 DWORD PTR _ship_iter$[ebp], eax
  00022	c7 45 fc ff ff
	ff ff		 mov	 DWORD PTR _ship_iter$[ebp+4], -1
  00029	e8 00 00 00 00	 call	 ?next@?$ListIter@VShip@@@@QAEPAVShip@@XZ ; ListIter<Ship>::next
  0002e	85 c0		 test	 eax, eax
  00030	74 48		 je	 SHORT $LN21@UpdateShip
$LL5@UpdateShip:

; 2617 : 		ship = ship_iter.value();

  00032	8d 45 f8	 lea	 eax, DWORD PTR _ship_iter$[ebp]
  00035	e8 00 00 00 00	 call	 ?value@?$ListIter@VShip@@@@QAEPAVShip@@XZ ; ListIter<Ship>::value

; 2618 : 		
; 2619 : 		if (ship_index == ai_index || ship == player_ship)

  0003a	3b be 04 01 00
	00		 cmp	 edi, DWORD PTR [esi+260]
  00040	74 0e		 je	 SHORT $LN2@UpdateShip
  00042	3b 46 44	 cmp	 eax, DWORD PTR [esi+68]
  00045	74 09		 je	 SHORT $LN2@UpdateShip

; 2621 : 		else
; 2622 : 		ship->SetAIMode(1);

  00047	c6 80 14 04 00
	00 01		 mov	 BYTE PTR [eax+1044], 1
  0004e	eb 07		 jmp	 SHORT $LN17@UpdateShip
$LN2@UpdateShip:

; 2620 : 		ship->SetAIMode(2);

  00050	c6 80 14 04 00
	00 02		 mov	 BYTE PTR [eax+1044], 2

; 2621 : 		else
; 2622 : 		ship->SetAIMode(1);

$LN17@UpdateShip:

; 2623 : 
; 2624 : 		ship->ExecFrame(seconds);

  00057	8b 10		 mov	 edx, DWORD PTR [eax]
  00059	f2 0f 10 45 08	 movsd	 xmm0, QWORD PTR _seconds$[ebp]
  0005e	83 ec 08	 sub	 esp, 8
  00061	8b c8		 mov	 ecx, eax
  00063	8b 42 04	 mov	 eax, DWORD PTR [edx+4]
  00066	f2 0f 11 04 24	 movsd	 QWORD PTR [esp], xmm0
  0006b	ff d0		 call	 eax
  0006d	8d 55 f8	 lea	 edx, DWORD PTR _ship_iter$[ebp]

; 2625 : 		ship_index++;

  00070	47		 inc	 edi
  00071	e8 00 00 00 00	 call	 ?next@?$ListIter@VShip@@@@QAEPAVShip@@XZ ; ListIter<Ship>::next
  00076	85 c0		 test	 eax, eax
  00078	75 b8		 jne	 SHORT $LL5@UpdateShip
$LN21@UpdateShip:

; 2626 : 	}
; 2627 : 
; 2628 : 	ai_index++;

  0007a	ff 86 04 01 00
	00		 inc	 DWORD PTR [esi+260]

; 2629 : }

  00080	5f		 pop	 edi
  00081	8b e5		 mov	 esp, ebp
  00083	5d		 pop	 ebp
  00084	c2 08 00	 ret	 8
?UpdateShips@SimRegion@@IAEXN@Z ENDP			; SimRegion::UpdateShips
; Function compile flags: /Ogtp
_TEXT	ENDS
;	COMDAT ?Deactivate@SimRegion@@UAEXXZ
_TEXT	SEGMENT
_a$ = -8						; size = 8
_deb$ = -8						; size = 8
_exp$ = -8						; size = 8
_shot$ = -8						; size = 8
_ship$ = -8						; size = 8
?Deactivate@SimRegion@@UAEXXZ PROC			; SimRegion::Deactivate, COMDAT
; _this$ = ecx

; 2467 : {

  00000	55		 push	 ebp
  00001	8b ec		 mov	 ebp, esp
  00003	83 e4 f8	 and	 esp, -8			; fffffff8H
  00006	83 ec 08	 sub	 esp, 8
  00009	56		 push	 esi
  0000a	8b f1		 mov	 esi, ecx

; 2468 : 	if (!sim) return;

  0000c	83 7e 08 00	 cmp	 DWORD PTR [esi+8], 0
  00010	57		 push	 edi
  00011	0f 84 a4 01 00
	00		 je	 $LN1@Deactivate

; 2469 : 
; 2470 : 	ListIter<Ship> ship = ships;

  00017	8d 46 4c	 lea	 eax, DWORD PTR [esi+76]
  0001a	83 cf ff	 or	 edi, -1

; 2471 : 	while (++ship)

  0001d	8d 54 24 08	 lea	 edx, DWORD PTR _ship$[esp+16]
  00021	89 44 24 08	 mov	 DWORD PTR _ship$[esp+16], eax
  00025	89 7c 24 0c	 mov	 DWORD PTR _ship$[esp+20], edi
  00029	e8 00 00 00 00	 call	 ?next@?$ListIter@VShip@@@@QAEPAVShip@@XZ ; ListIter<Ship>::next
  0002e	85 c0		 test	 eax, eax
  00030	74 29		 je	 SHORT $LN14@Deactivate
$LL15@Deactivate:

; 2472 : 	ship->Deactivate(sim->scene);

  00032	8d 44 24 08	 lea	 eax, DWORD PTR _ship$[esp+16]
  00036	e8 00 00 00 00	 call	 ?value@?$ListIter@VShip@@@@QAEPAVShip@@XZ ; ListIter<Ship>::value
  0003b	8b 4e 08	 mov	 ecx, DWORD PTR [esi+8]
  0003e	8b 10		 mov	 edx, DWORD PTR [eax]
  00040	8b 92 a8 00 00
	00		 mov	 edx, DWORD PTR [edx+168]
  00046	83 c1 0c	 add	 ecx, 12			; 0000000cH
  00049	51		 push	 ecx
  0004a	8b c8		 mov	 ecx, eax
  0004c	ff d2		 call	 edx
  0004e	8d 54 24 08	 lea	 edx, DWORD PTR _ship$[esp+16]
  00052	e8 00 00 00 00	 call	 ?next@?$ListIter@VShip@@@@QAEPAVShip@@XZ ; ListIter<Ship>::next
  00057	85 c0		 test	 eax, eax
  00059	75 d7		 jne	 SHORT $LL15@Deactivate
$LN14@Deactivate:

; 2473 : 
; 2474 : 	ListIter<Shot> shot = shots;

  0005b	8d 46 7c	 lea	 eax, DWORD PTR [esi+124]

; 2475 : 	while (++shot)

  0005e	8d 54 24 08	 lea	 edx, DWORD PTR _shot$[esp+16]
  00062	89 44 24 08	 mov	 DWORD PTR _shot$[esp+16], eax
  00066	89 7c 24 0c	 mov	 DWORD PTR _shot$[esp+20], edi
  0006a	e8 00 00 00 00	 call	 ?next@?$ListIter@VShot@@@@QAEPAVShot@@XZ ; ListIter<Shot>::next
  0006f	85 c0		 test	 eax, eax
  00071	74 29		 je	 SHORT $LN12@Deactivate
$LL13@Deactivate:

; 2476 : 	shot->Deactivate(sim->scene);

  00073	8d 44 24 08	 lea	 eax, DWORD PTR _shot$[esp+16]
  00077	e8 00 00 00 00	 call	 ?value@?$ListIter@VShot@@@@QAEPAVShot@@XZ ; ListIter<Shot>::value
  0007c	8b 4e 08	 mov	 ecx, DWORD PTR [esi+8]
  0007f	8b 10		 mov	 edx, DWORD PTR [eax]
  00081	8b 92 a8 00 00
	00		 mov	 edx, DWORD PTR [edx+168]
  00087	83 c1 0c	 add	 ecx, 12			; 0000000cH
  0008a	51		 push	 ecx
  0008b	8b c8		 mov	 ecx, eax
  0008d	ff d2		 call	 edx
  0008f	8d 54 24 08	 lea	 edx, DWORD PTR _shot$[esp+16]
  00093	e8 00 00 00 00	 call	 ?next@?$ListIter@VShot@@@@QAEPAVShot@@XZ ; ListIter<Shot>::next
  00098	85 c0		 test	 eax, eax
  0009a	75 d7		 jne	 SHORT $LL13@Deactivate
$LN12@Deactivate:

; 2477 : 
; 2478 : 	ListIter<Explosion> exp = explosions;

  0009c	8d 86 94 00 00
	00		 lea	 eax, DWORD PTR [esi+148]

; 2479 : 	while (++exp)

  000a2	8d 54 24 08	 lea	 edx, DWORD PTR _exp$[esp+16]
  000a6	89 44 24 08	 mov	 DWORD PTR _exp$[esp+16], eax
  000aa	89 7c 24 0c	 mov	 DWORD PTR _exp$[esp+20], edi
  000ae	e8 00 00 00 00	 call	 ?next@?$ListIter@VExplosion@@@@QAEPAVExplosion@@XZ ; ListIter<Explosion>::next
  000b3	85 c0		 test	 eax, eax
  000b5	74 29		 je	 SHORT $LN10@Deactivate
$LL11@Deactivate:

; 2480 : 	exp->Deactivate(sim->scene);

  000b7	8d 44 24 08	 lea	 eax, DWORD PTR _exp$[esp+16]
  000bb	e8 00 00 00 00	 call	 ?value@?$ListIter@VExplosion@@@@QAEPAVExplosion@@XZ ; ListIter<Explosion>::value
  000c0	8b 4e 08	 mov	 ecx, DWORD PTR [esi+8]
  000c3	8b 10		 mov	 edx, DWORD PTR [eax]
  000c5	8b 92 a8 00 00
	00		 mov	 edx, DWORD PTR [edx+168]
  000cb	83 c1 0c	 add	 ecx, 12			; 0000000cH
  000ce	51		 push	 ecx
  000cf	8b c8		 mov	 ecx, eax
  000d1	ff d2		 call	 edx
  000d3	8d 54 24 08	 lea	 edx, DWORD PTR _exp$[esp+16]
  000d7	e8 00 00 00 00	 call	 ?next@?$ListIter@VExplosion@@@@QAEPAVExplosion@@XZ ; ListIter<Explosion>::next
  000dc	85 c0		 test	 eax, eax
  000de	75 d7		 jne	 SHORT $LL11@Deactivate
$LN10@Deactivate:

; 2481 : 
; 2482 : 	ListIter<Debris> deb = debris;

  000e0	8d 86 a0 00 00
	00		 lea	 eax, DWORD PTR [esi+160]

; 2483 : 	while (++deb)

  000e6	8d 54 24 08	 lea	 edx, DWORD PTR _deb$[esp+16]
  000ea	89 44 24 08	 mov	 DWORD PTR _deb$[esp+16], eax
  000ee	89 7c 24 0c	 mov	 DWORD PTR _deb$[esp+20], edi
  000f2	e8 00 00 00 00	 call	 ?next@?$ListIter@VDebris@@@@QAEPAVDebris@@XZ ; ListIter<Debris>::next
  000f7	85 c0		 test	 eax, eax
  000f9	74 2e		 je	 SHORT $LN8@Deactivate
  000fb	eb 03 8d 49 00	 npad	 5
$LL9@Deactivate:

; 2484 : 	deb->Deactivate(sim->scene);

  00100	8d 44 24 08	 lea	 eax, DWORD PTR _deb$[esp+16]
  00104	e8 00 00 00 00	 call	 ?value@?$ListIter@VDebris@@@@QAEPAVDebris@@XZ ; ListIter<Debris>::value
  00109	8b 4e 08	 mov	 ecx, DWORD PTR [esi+8]
  0010c	8b 10		 mov	 edx, DWORD PTR [eax]
  0010e	8b 92 a8 00 00
	00		 mov	 edx, DWORD PTR [edx+168]
  00114	83 c1 0c	 add	 ecx, 12			; 0000000cH
  00117	51		 push	 ecx
  00118	8b c8		 mov	 ecx, eax
  0011a	ff d2		 call	 edx
  0011c	8d 54 24 08	 lea	 edx, DWORD PTR _deb$[esp+16]
  00120	e8 00 00 00 00	 call	 ?next@?$ListIter@VDebris@@@@QAEPAVDebris@@XZ ; ListIter<Debris>::next
  00125	85 c0		 test	 eax, eax
  00127	75 d7		 jne	 SHORT $LL9@Deactivate
$LN8@Deactivate:

; 2485 : 
; 2486 : 	ListIter<Asteroid> a = asteroids;

  00129	8d 86 ac 00 00
	00		 lea	 eax, DWORD PTR [esi+172]

; 2487 : 	while (++a)

  0012f	8d 54 24 08	 lea	 edx, DWORD PTR _a$[esp+16]
  00133	89 44 24 08	 mov	 DWORD PTR _a$[esp+16], eax
  00137	89 7c 24 0c	 mov	 DWORD PTR _a$[esp+20], edi
  0013b	e8 00 00 00 00	 call	 ?next@?$ListIter@VAsteroid@@@@QAEPAVAsteroid@@XZ ; ListIter<Asteroid>::next
  00140	85 c0		 test	 eax, eax
  00142	74 29		 je	 SHORT $LN6@Deactivate
$LL7@Deactivate:

; 2488 : 	a->Deactivate(sim->scene);

  00144	8d 44 24 08	 lea	 eax, DWORD PTR _a$[esp+16]
  00148	e8 00 00 00 00	 call	 ?value@?$ListIter@VAsteroid@@@@QAEPAVAsteroid@@XZ ; ListIter<Asteroid>::value
  0014d	8b 4e 08	 mov	 ecx, DWORD PTR [esi+8]
  00150	8b 10		 mov	 edx, DWORD PTR [eax]
  00152	8b 92 a8 00 00
	00		 mov	 edx, DWORD PTR [edx+168]
  00158	83 c1 0c	 add	 ecx, 12			; 0000000cH
  0015b	51		 push	 ecx
  0015c	8b c8		 mov	 ecx, eax
  0015e	ff d2		 call	 edx
  00160	8d 54 24 08	 lea	 edx, DWORD PTR _a$[esp+16]
  00164	e8 00 00 00 00	 call	 ?next@?$ListIter@VAsteroid@@@@QAEPAVAsteroid@@XZ ; ListIter<Asteroid>::next
  00169	85 c0		 test	 eax, eax
  0016b	75 d7		 jne	 SHORT $LL7@Deactivate
$LN6@Deactivate:

; 2489 : 
; 2490 : 	if (grid)

  0016d	8b 46 38	 mov	 eax, DWORD PTR [esi+56]
  00170	85 c0		 test	 eax, eax
  00172	74 0c		 je	 SHORT $LN5@Deactivate

; 2491 : 	sim->scene.DelGraphic(grid);

  00174	8b 4e 08	 mov	 ecx, DWORD PTR [esi+8]
  00177	50		 push	 eax
  00178	83 c1 0c	 add	 ecx, 12			; 0000000cH
  0017b	e8 00 00 00 00	 call	 ?DelGraphic@Scene@@QAEXPAVGraphic@@@Z ; Scene::DelGraphic
$LN5@Deactivate:

; 2492 : 
; 2493 : 	if (terrain)

  00180	8b 4e 3c	 mov	 ecx, DWORD PTR [esi+60]
  00183	85 c9		 test	 ecx, ecx
  00185	74 0e		 je	 SHORT $LN4@Deactivate

; 2494 : 	terrain->Deactivate(sim->scene);

  00187	8b 56 08	 mov	 edx, DWORD PTR [esi+8]
  0018a	8b 01		 mov	 eax, DWORD PTR [ecx]
  0018c	8b 40 08	 mov	 eax, DWORD PTR [eax+8]
  0018f	83 c2 0c	 add	 edx, 12			; 0000000cH
  00192	52		 push	 edx
  00193	ff d0		 call	 eax
$LN4@Deactivate:

; 2495 : 
; 2496 : 	player_ship = 0;

  00195	c7 46 44 00 00
	00 00		 mov	 DWORD PTR [esi+68], 0

; 2497 : 	active      = false;

  0019c	c6 46 40 00	 mov	 BYTE PTR [esi+64], 0
  001a0	81 c6 b8 00 00
	00		 add	 esi, 184		; 000000b8H
  001a6	bf 05 00 00 00	 mov	 edi, 5
  001ab	eb 03 8d 49 00	 npad	 5
$LL3@Deactivate:

; 2498 : 
; 2499 : 	for (int i = 0; i < 5; i++)
; 2500 : 	track_database[i].destroy();

  001b0	e8 00 00 00 00	 call	 ?destroy@?$List@VContact@@@@QAEXXZ ; List<Contact>::destroy
  001b5	83 c6 0c	 add	 esi, 12			; 0000000cH
  001b8	4f		 dec	 edi
  001b9	75 f5		 jne	 SHORT $LL3@Deactivate
$LN1@Deactivate:

; 2501 : }

  001bb	5f		 pop	 edi
  001bc	5e		 pop	 esi
  001bd	8b e5		 mov	 esp, ebp
  001bf	5d		 pop	 ebp
  001c0	c3		 ret	 0
?Deactivate@SimRegion@@UAEXXZ ENDP			; SimRegion::Deactivate
; Function compile flags: /Ogtp
_TEXT	ENDS
;	COMDAT ?Activate@SimRegion@@UAEXXZ
_TEXT	SEGMENT
_a$ = -8						; size = 8
_deb$ = -8						; size = 8
_exp$ = -8						; size = 8
_shot$ = -8						; size = 8
_ship$ = -8						; size = 8
?Activate@SimRegion@@UAEXXZ PROC			; SimRegion::Activate, COMDAT
; _this$ = ecx

; 2430 : {

  00000	55		 push	 ebp
  00001	8b ec		 mov	 ebp, esp
  00003	83 e4 f8	 and	 esp, -8			; fffffff8H
  00006	83 ec 08	 sub	 esp, 8
  00009	56		 push	 esi
  0000a	8b f1		 mov	 esi, ecx

; 2431 : 	if (!sim) return;

  0000c	83 7e 08 00	 cmp	 DWORD PTR [esi+8], 0
  00010	57		 push	 edi
  00011	0f 84 89 01 00
	00		 je	 $LN14@Activate

; 2432 : 
; 2433 : 	ListIter<Ship> ship = ships;

  00017	8d 46 4c	 lea	 eax, DWORD PTR [esi+76]
  0001a	83 cf ff	 or	 edi, -1

; 2434 : 	while (++ship)

  0001d	8d 54 24 08	 lea	 edx, DWORD PTR _ship$[esp+16]
  00021	89 44 24 08	 mov	 DWORD PTR _ship$[esp+16], eax
  00025	89 7c 24 0c	 mov	 DWORD PTR _ship$[esp+20], edi
  00029	e8 00 00 00 00	 call	 ?next@?$ListIter@VShip@@@@QAEPAVShip@@XZ ; ListIter<Ship>::next
  0002e	85 c0		 test	 eax, eax
  00030	74 29		 je	 SHORT $LN11@Activate
$LL12@Activate:

; 2435 : 	ship->Activate(sim->scene);

  00032	8d 44 24 08	 lea	 eax, DWORD PTR _ship$[esp+16]
  00036	e8 00 00 00 00	 call	 ?value@?$ListIter@VShip@@@@QAEPAVShip@@XZ ; ListIter<Ship>::value
  0003b	8b 4e 08	 mov	 ecx, DWORD PTR [esi+8]
  0003e	8b 10		 mov	 edx, DWORD PTR [eax]
  00040	8b 92 a4 00 00
	00		 mov	 edx, DWORD PTR [edx+164]
  00046	83 c1 0c	 add	 ecx, 12			; 0000000cH
  00049	51		 push	 ecx
  0004a	8b c8		 mov	 ecx, eax
  0004c	ff d2		 call	 edx
  0004e	8d 54 24 08	 lea	 edx, DWORD PTR _ship$[esp+16]
  00052	e8 00 00 00 00	 call	 ?next@?$ListIter@VShip@@@@QAEPAVShip@@XZ ; ListIter<Ship>::next
  00057	85 c0		 test	 eax, eax
  00059	75 d7		 jne	 SHORT $LL12@Activate
$LN11@Activate:

; 2436 : 
; 2437 : 	ListIter<Shot> shot = shots;

  0005b	8d 46 7c	 lea	 eax, DWORD PTR [esi+124]

; 2438 : 	while (++shot)

  0005e	8d 54 24 08	 lea	 edx, DWORD PTR _shot$[esp+16]
  00062	89 44 24 08	 mov	 DWORD PTR _shot$[esp+16], eax
  00066	89 7c 24 0c	 mov	 DWORD PTR _shot$[esp+20], edi
  0006a	e8 00 00 00 00	 call	 ?next@?$ListIter@VShot@@@@QAEPAVShot@@XZ ; ListIter<Shot>::next
  0006f	85 c0		 test	 eax, eax
  00071	74 29		 je	 SHORT $LN9@Activate
$LL10@Activate:

; 2439 : 	shot->Activate(sim->scene);

  00073	8d 44 24 08	 lea	 eax, DWORD PTR _shot$[esp+16]
  00077	e8 00 00 00 00	 call	 ?value@?$ListIter@VShot@@@@QAEPAVShot@@XZ ; ListIter<Shot>::value
  0007c	8b 4e 08	 mov	 ecx, DWORD PTR [esi+8]
  0007f	8b 10		 mov	 edx, DWORD PTR [eax]
  00081	8b 92 a4 00 00
	00		 mov	 edx, DWORD PTR [edx+164]
  00087	83 c1 0c	 add	 ecx, 12			; 0000000cH
  0008a	51		 push	 ecx
  0008b	8b c8		 mov	 ecx, eax
  0008d	ff d2		 call	 edx
  0008f	8d 54 24 08	 lea	 edx, DWORD PTR _shot$[esp+16]
  00093	e8 00 00 00 00	 call	 ?next@?$ListIter@VShot@@@@QAEPAVShot@@XZ ; ListIter<Shot>::next
  00098	85 c0		 test	 eax, eax
  0009a	75 d7		 jne	 SHORT $LL10@Activate
$LN9@Activate:

; 2440 : 
; 2441 : 	ListIter<Explosion> exp = explosions;

  0009c	8d 86 94 00 00
	00		 lea	 eax, DWORD PTR [esi+148]

; 2442 : 	while (++exp)

  000a2	8d 54 24 08	 lea	 edx, DWORD PTR _exp$[esp+16]
  000a6	89 44 24 08	 mov	 DWORD PTR _exp$[esp+16], eax
  000aa	89 7c 24 0c	 mov	 DWORD PTR _exp$[esp+20], edi
  000ae	e8 00 00 00 00	 call	 ?next@?$ListIter@VExplosion@@@@QAEPAVExplosion@@XZ ; ListIter<Explosion>::next
  000b3	85 c0		 test	 eax, eax
  000b5	74 29		 je	 SHORT $LN7@Activate
$LL8@Activate:

; 2443 : 	exp->Activate(sim->scene);

  000b7	8d 44 24 08	 lea	 eax, DWORD PTR _exp$[esp+16]
  000bb	e8 00 00 00 00	 call	 ?value@?$ListIter@VExplosion@@@@QAEPAVExplosion@@XZ ; ListIter<Explosion>::value
  000c0	8b 4e 08	 mov	 ecx, DWORD PTR [esi+8]
  000c3	8b 10		 mov	 edx, DWORD PTR [eax]
  000c5	8b 92 a4 00 00
	00		 mov	 edx, DWORD PTR [edx+164]
  000cb	83 c1 0c	 add	 ecx, 12			; 0000000cH
  000ce	51		 push	 ecx
  000cf	8b c8		 mov	 ecx, eax
  000d1	ff d2		 call	 edx
  000d3	8d 54 24 08	 lea	 edx, DWORD PTR _exp$[esp+16]
  000d7	e8 00 00 00 00	 call	 ?next@?$ListIter@VExplosion@@@@QAEPAVExplosion@@XZ ; ListIter<Explosion>::next
  000dc	85 c0		 test	 eax, eax
  000de	75 d7		 jne	 SHORT $LL8@Activate
$LN7@Activate:

; 2444 : 
; 2445 : 	ListIter<Debris> deb = debris;

  000e0	8d 86 a0 00 00
	00		 lea	 eax, DWORD PTR [esi+160]

; 2446 : 	while (++deb)

  000e6	8d 54 24 08	 lea	 edx, DWORD PTR _deb$[esp+16]
  000ea	89 44 24 08	 mov	 DWORD PTR _deb$[esp+16], eax
  000ee	89 7c 24 0c	 mov	 DWORD PTR _deb$[esp+20], edi
  000f2	e8 00 00 00 00	 call	 ?next@?$ListIter@VDebris@@@@QAEPAVDebris@@XZ ; ListIter<Debris>::next
  000f7	85 c0		 test	 eax, eax
  000f9	74 2e		 je	 SHORT $LN5@Activate
  000fb	eb 03 8d 49 00	 npad	 5
$LL6@Activate:

; 2447 : 	deb->Activate(sim->scene);

  00100	8d 44 24 08	 lea	 eax, DWORD PTR _deb$[esp+16]
  00104	e8 00 00 00 00	 call	 ?value@?$ListIter@VDebris@@@@QAEPAVDebris@@XZ ; ListIter<Debris>::value
  00109	8b 4e 08	 mov	 ecx, DWORD PTR [esi+8]
  0010c	8b 10		 mov	 edx, DWORD PTR [eax]
  0010e	8b 92 a4 00 00
	00		 mov	 edx, DWORD PTR [edx+164]
  00114	83 c1 0c	 add	 ecx, 12			; 0000000cH
  00117	51		 push	 ecx
  00118	8b c8		 mov	 ecx, eax
  0011a	ff d2		 call	 edx
  0011c	8d 54 24 08	 lea	 edx, DWORD PTR _deb$[esp+16]
  00120	e8 00 00 00 00	 call	 ?next@?$ListIter@VDebris@@@@QAEPAVDebris@@XZ ; ListIter<Debris>::next
  00125	85 c0		 test	 eax, eax
  00127	75 d7		 jne	 SHORT $LL6@Activate
$LN5@Activate:

; 2448 : 
; 2449 : 	ListIter<Asteroid> a = asteroids;

  00129	8d 86 ac 00 00
	00		 lea	 eax, DWORD PTR [esi+172]

; 2450 : 	while (++a)

  0012f	8d 54 24 08	 lea	 edx, DWORD PTR _a$[esp+16]
  00133	89 44 24 08	 mov	 DWORD PTR _a$[esp+16], eax
  00137	89 7c 24 0c	 mov	 DWORD PTR _a$[esp+20], edi
  0013b	e8 00 00 00 00	 call	 ?next@?$ListIter@VAsteroid@@@@QAEPAVAsteroid@@XZ ; ListIter<Asteroid>::next
  00140	85 c0		 test	 eax, eax
  00142	74 29		 je	 SHORT $LN3@Activate
$LL4@Activate:

; 2451 : 	a->Activate(sim->scene);

  00144	8d 44 24 08	 lea	 eax, DWORD PTR _a$[esp+16]
  00148	e8 00 00 00 00	 call	 ?value@?$ListIter@VAsteroid@@@@QAEPAVAsteroid@@XZ ; ListIter<Asteroid>::value
  0014d	8b 4e 08	 mov	 ecx, DWORD PTR [esi+8]
  00150	8b 10		 mov	 edx, DWORD PTR [eax]
  00152	8b 92 a4 00 00
	00		 mov	 edx, DWORD PTR [edx+164]
  00158	83 c1 0c	 add	 ecx, 12			; 0000000cH
  0015b	51		 push	 ecx
  0015c	8b c8		 mov	 ecx, eax
  0015e	ff d2		 call	 edx
  00160	8d 54 24 08	 lea	 edx, DWORD PTR _a$[esp+16]
  00164	e8 00 00 00 00	 call	 ?next@?$ListIter@VAsteroid@@@@QAEPAVAsteroid@@XZ ; ListIter<Asteroid>::next
  00169	85 c0		 test	 eax, eax
  0016b	75 d7		 jne	 SHORT $LL4@Activate
$LN3@Activate:

; 2452 : 
; 2453 : 	if (grid)

  0016d	8b 46 38	 mov	 eax, DWORD PTR [esi+56]
  00170	85 c0		 test	 eax, eax
  00172	74 0c		 je	 SHORT $LN2@Activate

; 2454 : 	sim->scene.AddGraphic(grid);

  00174	8b 4e 08	 mov	 ecx, DWORD PTR [esi+8]
  00177	50		 push	 eax
  00178	83 c1 0c	 add	 ecx, 12			; 0000000cH
  0017b	e8 00 00 00 00	 call	 ?AddGraphic@Scene@@QAEXPAVGraphic@@@Z ; Scene::AddGraphic
$LN2@Activate:

; 2455 : 
; 2456 : 	if (terrain)

  00180	8b 4e 3c	 mov	 ecx, DWORD PTR [esi+60]
  00183	85 c9		 test	 ecx, ecx
  00185	74 0e		 je	 SHORT $LN1@Activate

; 2457 : 	terrain->Activate(sim->scene);

  00187	8b 56 08	 mov	 edx, DWORD PTR [esi+8]
  0018a	8b 01		 mov	 eax, DWORD PTR [ecx]
  0018c	8b 40 04	 mov	 eax, DWORD PTR [eax+4]
  0018f	83 c2 0c	 add	 edx, 12			; 0000000cH
  00192	52		 push	 edx
  00193	ff d0		 call	 eax
$LN1@Activate:

; 2458 : 
; 2459 : 	player_ship = 0;

  00195	c7 46 44 00 00
	00 00		 mov	 DWORD PTR [esi+68], 0

; 2460 : 	active      = true;

  0019c	c6 46 40 01	 mov	 BYTE PTR [esi+64], 1
$LN14@Activate:

; 2461 : }

  001a0	5f		 pop	 edi
  001a1	5e		 pop	 esi
  001a2	8b e5		 mov	 esp, ebp
  001a4	5d		 pop	 ebp
  001a5	c3		 ret	 0
?Activate@SimRegion@@UAEXXZ ENDP			; SimRegion::Activate
_TEXT	ENDS
PUBLIC	?ClearSelection@SimRegion@@QAEXXZ		; SimRegion::ClearSelection
; Function compile flags: /Ogtp
;	COMDAT ?ClearSelection@SimRegion@@QAEXXZ
_TEXT	SEGMENT
?ClearSelection@SimRegion@@QAEXXZ PROC			; SimRegion::ClearSelection, COMDAT
; _this$ = eax

; 2410 : {

  00000	56		 push	 esi

; 2411 : 	selection.clear();

  00001	8d 70 64	 lea	 esi, DWORD PTR [eax+100]
  00004	e8 00 00 00 00	 call	 ?clear@?$List@VShip@@@@QAEXXZ ; List<Ship>::clear
  00009	5e		 pop	 esi

; 2412 : }

  0000a	c3		 ret	 0
?ClearSelection@SimRegion@@QAEXXZ ENDP			; SimRegion::ClearSelection
_TEXT	ENDS
PUBLIC	?GetSelection@SimRegion@@QAE?AV?$ListIter@VShip@@@@XZ ; SimRegion::GetSelection
; Function compile flags: /Ogtp
;	COMDAT ?GetSelection@SimRegion@@QAE?AV?$ListIter@VShip@@@@XZ
_TEXT	SEGMENT
?GetSelection@SimRegion@@QAE?AV?$ListIter@VShip@@@@XZ PROC ; SimRegion::GetSelection, COMDAT
; _this$ = ecx
; ___$ReturnUdt$ = eax

; 2398 : 	return selection;

  00000	83 c1 64	 add	 ecx, 100		; 00000064H
  00003	89 08		 mov	 DWORD PTR [eax], ecx
  00005	c7 40 04 ff ff
	ff ff		 mov	 DWORD PTR [eax+4], -1

; 2399 : }

  0000c	c3		 ret	 0
?GetSelection@SimRegion@@QAE?AV?$ListIter@VShip@@@@XZ ENDP ; SimRegion::GetSelection
_TEXT	ENDS
PUBLIC	??1SimRegion@@UAE@XZ				; SimRegion::~SimRegion
;	COMDAT xdata$x
; File c:\matrix games\source\foundationex\list.h
xdata$x	SEGMENT
__unwindtable$??1SimRegion@@UAE@XZ DD 0ffffffffH
	DD	FLAT:__unwindfunclet$??1SimRegion@@UAE@XZ$0
	DD	00H
	DD	FLAT:__unwindfunclet$??1SimRegion@@UAE@XZ$1
	DD	01H
	DD	FLAT:__unwindfunclet$??1SimRegion@@UAE@XZ$2
	DD	02H
	DD	FLAT:__unwindfunclet$??1SimRegion@@UAE@XZ$3
	DD	03H
	DD	FLAT:__unwindfunclet$??1SimRegion@@UAE@XZ$4
	DD	04H
	DD	FLAT:__unwindfunclet$??1SimRegion@@UAE@XZ$5
	DD	05H
	DD	FLAT:__unwindfunclet$??1SimRegion@@UAE@XZ$6
	DD	06H
	DD	FLAT:__unwindfunclet$??1SimRegion@@UAE@XZ$7
	DD	07H
	DD	FLAT:__unwindfunclet$??1SimRegion@@UAE@XZ$8
	DD	08H
	DD	FLAT:__unwindfunclet$??1SimRegion@@UAE@XZ$9
	DD	09H
	DD	FLAT:__unwindfunclet$??1SimRegion@@UAE@XZ$10
	DD	0aH
	DD	FLAT:__unwindfunclet$??1SimRegion@@UAE@XZ$11
__ehfuncinfo$??1SimRegion@@UAE@XZ DD 019930522H
	DD	0cH
	DD	FLAT:__unwindtable$??1SimRegion@@UAE@XZ
	DD	2 DUP(00H)
	DD	2 DUP(00H)
	DD	00H
	DD	01H
; Function compile flags: /Ogtp
; File c:\matrix games\source\stars45\sim.cpp
xdata$x	ENDS
;	COMDAT ??1SimRegion@@UAE@XZ
_TEXT	SEGMENT
_this$ = -20						; size = 4
tv149 = -16						; size = 4
__$EHRec$ = -12						; size = 12
??1SimRegion@@UAE@XZ PROC				; SimRegion::~SimRegion, COMDAT
; _this$ = ecx

; 2279 : {

  00000	55		 push	 ebp
  00001	8b ec		 mov	 ebp, esp
  00003	6a ff		 push	 -1
  00005	68 00 00 00 00	 push	 __ehhandler$??1SimRegion@@UAE@XZ
  0000a	64 a1 00 00 00
	00		 mov	 eax, DWORD PTR fs:0
  00010	50		 push	 eax
  00011	83 ec 08	 sub	 esp, 8
  00014	53		 push	 ebx
  00015	56		 push	 esi
  00016	57		 push	 edi
  00017	a1 00 00 00 00	 mov	 eax, DWORD PTR ___security_cookie
  0001c	33 c5		 xor	 eax, ebp
  0001e	50		 push	 eax
  0001f	8d 45 f4	 lea	 eax, DWORD PTR __$EHRec$[ebp]
  00022	64 a3 00 00 00
	00		 mov	 DWORD PTR fs:0, eax
  00028	8b f9		 mov	 edi, ecx
  0002a	89 7d ec	 mov	 DWORD PTR _this$[ebp], edi
  0002d	c7 07 00 00 00
	00		 mov	 DWORD PTR [edi], OFFSET ??_7SimRegion@@6B@
  00033	c7 45 fc 0b 00
	00 00		 mov	 DWORD PTR __$EHRec$[ebp+8], 11 ; 0000000bH

; 2280 : 	GRAPHIC_DESTROY(grid);

  0003a	8b 4f 38	 mov	 ecx, DWORD PTR [edi+56]
  0003d	85 c9		 test	 ecx, ecx
  0003f	74 0e		 je	 SHORT $LN4@SimRegion
  00041	8b 01		 mov	 eax, DWORD PTR [ecx]
  00043	8b 50 44	 mov	 edx, DWORD PTR [eax+68]
  00046	ff d2		 call	 edx
  00048	c7 47 38 00 00
	00 00		 mov	 DWORD PTR [edi+56], 0
$LN4@SimRegion:

; 2281 : 	delete terrain;

  0004f	8b 4f 3c	 mov	 ecx, DWORD PTR [edi+60]
  00052	85 c9		 test	 ecx, ecx
  00054	74 08		 je	 SHORT $LN7@SimRegion
  00056	8b 01		 mov	 eax, DWORD PTR [ecx]
  00058	8b 10		 mov	 edx, DWORD PTR [eax]
  0005a	6a 01		 push	 1
  0005c	ff d2		 call	 edx
$LN7@SimRegion:

; 2282 : 	explosions.destroy();

  0005e	8d b7 94 00 00
	00		 lea	 esi, DWORD PTR [edi+148]
  00064	e8 00 00 00 00	 call	 ?destroy@?$List@VExplosion@@@@QAEXXZ ; List<Explosion>::destroy

; 2283 : 	shots.destroy();

  00069	8d 77 7c	 lea	 esi, DWORD PTR [edi+124]
  0006c	e8 00 00 00 00	 call	 ?destroy@?$List@VShot@@@@QAEXXZ ; List<Shot>::destroy

; 2284 : 	ships.destroy();

  00071	8d 77 4c	 lea	 esi, DWORD PTR [edi+76]
  00074	e8 00 00 00 00	 call	 ?destroy@?$List@VShip@@@@QAEXXZ ; List<Ship>::destroy

; 2285 : 	debris.destroy();

  00079	8d b7 a0 00 00
	00		 lea	 esi, DWORD PTR [edi+160]
  0007f	e8 00 00 00 00	 call	 ?destroy@?$List@VDebris@@@@QAEXXZ ; List<Debris>::destroy

; 2286 : 	asteroids.destroy();

  00084	8d b7 ac 00 00
	00		 lea	 esi, DWORD PTR [edi+172]
  0008a	e8 00 00 00 00	 call	 ?destroy@?$List@VAsteroid@@@@QAEXXZ ; List<Asteroid>::destroy

; 2287 : 	dead_ships.destroy();

  0008f	8d 77 70	 lea	 esi, DWORD PTR [edi+112]
  00092	e8 00 00 00 00	 call	 ?destroy@?$List@VShip@@@@QAEXXZ ; List<Ship>::destroy
  00097	8d 9f b8 00 00
	00		 lea	 ebx, DWORD PTR [edi+184]
  0009d	8b f3		 mov	 esi, ebx
  0009f	c7 45 f0 05 00
	00 00		 mov	 DWORD PTR tv149[ebp], 5
$LL3@SimRegion:

; 2288 : 
; 2289 : 	for (int i = 0; i < 5; i++)
; 2290 : 	track_database[i].destroy();

  000a6	e8 00 00 00 00	 call	 ?destroy@?$List@VContact@@@@QAEXXZ ; List<Contact>::destroy
  000ab	83 c6 0c	 add	 esi, 12			; 0000000cH
  000ae	ff 4d f0	 dec	 DWORD PTR tv149[ebp]
  000b1	75 f3		 jne	 SHORT $LL3@SimRegion

; 2291 : }

  000b3	c6 45 fc 0a	 mov	 BYTE PTR __$EHRec$[ebp+8], 10 ; 0000000aH
  000b7	8b 87 fc 00 00
	00		 mov	 eax, DWORD PTR [edi+252]
  000bd	50		 push	 eax
  000be	e8 00 00 00 00	 call	 ??3@YAXPAX@Z		; operator delete
  000c3	83 c4 04	 add	 esp, 4
  000c6	68 00 00 00 00	 push	 OFFSET ??1?$List@VContact@@@@QAE@XZ ; List<Contact>::~List<Contact>
  000cb	6a 05		 push	 5
  000cd	6a 0c		 push	 12			; 0000000cH
  000cf	53		 push	 ebx
  000d0	c6 45 fc 09	 mov	 BYTE PTR __$EHRec$[ebp+8], 9
  000d4	e8 00 00 00 00	 call	 ??_M@YGXPAXIHP6EX0@Z@Z
  000d9	8b 87 b4 00 00
	00		 mov	 eax, DWORD PTR [edi+180]
  000df	50		 push	 eax
  000e0	e8 00 00 00 00	 call	 ??_V@YAXPAX@Z		; operator delete[]
  000e5	8b 87 a8 00 00
	00		 mov	 eax, DWORD PTR [edi+168]
  000eb	50		 push	 eax
  000ec	e8 00 00 00 00	 call	 ??_V@YAXPAX@Z		; operator delete[]
  000f1	8b 87 9c 00 00
	00		 mov	 eax, DWORD PTR [edi+156]
  000f7	50		 push	 eax
  000f8	e8 00 00 00 00	 call	 ??_V@YAXPAX@Z		; operator delete[]
  000fd	8b 87 90 00 00
	00		 mov	 eax, DWORD PTR [edi+144]
  00103	50		 push	 eax
  00104	e8 00 00 00 00	 call	 ??_V@YAXPAX@Z		; operator delete[]
  00109	8b 87 84 00 00
	00		 mov	 eax, DWORD PTR [edi+132]
  0010f	50		 push	 eax
  00110	e8 00 00 00 00	 call	 ??_V@YAXPAX@Z		; operator delete[]
  00115	c6 45 fc 03	 mov	 BYTE PTR __$EHRec$[ebp+8], 3
  00119	8b 47 78	 mov	 eax, DWORD PTR [edi+120]
  0011c	50		 push	 eax
  0011d	e8 00 00 00 00	 call	 ??3@YAXPAX@Z		; operator delete
  00122	c6 45 fc 02	 mov	 BYTE PTR __$EHRec$[ebp+8], 2
  00126	8b 47 6c	 mov	 eax, DWORD PTR [edi+108]
  00129	50		 push	 eax
  0012a	e8 00 00 00 00	 call	 ??3@YAXPAX@Z		; operator delete
  0012f	c6 45 fc 01	 mov	 BYTE PTR __$EHRec$[ebp+8], 1
  00133	8b 47 60	 mov	 eax, DWORD PTR [edi+96]
  00136	50		 push	 eax
  00137	e8 00 00 00 00	 call	 ??3@YAXPAX@Z		; operator delete
  0013c	c6 45 fc 00	 mov	 BYTE PTR __$EHRec$[ebp+8], 0
  00140	8b 47 54	 mov	 eax, DWORD PTR [edi+84]
  00143	50		 push	 eax
  00144	e8 00 00 00 00	 call	 ??3@YAXPAX@Z		; operator delete
  00149	83 c4 24	 add	 esp, 36			; 00000024H
  0014c	8d 4f 0c	 lea	 ecx, DWORD PTR [edi+12]
  0014f	c7 45 fc ff ff
	ff ff		 mov	 DWORD PTR __$EHRec$[ebp+8], -1
  00156	e8 00 00 00 00	 call	 ??1Text@@QAE@XZ		; Text::~Text
  0015b	8b 4d f4	 mov	 ecx, DWORD PTR __$EHRec$[ebp]
  0015e	64 89 0d 00 00
	00 00		 mov	 DWORD PTR fs:0, ecx
  00165	59		 pop	 ecx
  00166	5f		 pop	 edi
  00167	5e		 pop	 esi
  00168	5b		 pop	 ebx
  00169	8b e5		 mov	 esp, ebp
  0016b	5d		 pop	 ebp
  0016c	c3		 ret	 0
_TEXT	ENDS
;	COMDAT text$x
text$x	SEGMENT
__unwindfunclet$??1SimRegion@@UAE@XZ$0:
  00000	8b 4d ec	 mov	 ecx, DWORD PTR _this$[ebp]
  00003	83 c1 0c	 add	 ecx, 12			; 0000000cH
  00006	e9 00 00 00 00	 jmp	 ??1Text@@QAE@XZ		; Text::~Text
__unwindfunclet$??1SimRegion@@UAE@XZ$1:
  0000b	8b 45 ec	 mov	 eax, DWORD PTR _this$[ebp]
  0000e	83 c0 4c	 add	 eax, 76			; 0000004cH
  00011	e9 00 00 00 00	 jmp	 ??1?$List@VShip@@@@QAE@XZ ; List<Ship>::~List<Ship>
__unwindfunclet$??1SimRegion@@UAE@XZ$2:
  00016	8b 45 ec	 mov	 eax, DWORD PTR _this$[ebp]
  00019	83 c0 58	 add	 eax, 88			; 00000058H
  0001c	e9 00 00 00 00	 jmp	 ??1?$List@VShip@@@@QAE@XZ ; List<Ship>::~List<Ship>
__unwindfunclet$??1SimRegion@@UAE@XZ$3:
  00021	8b 45 ec	 mov	 eax, DWORD PTR _this$[ebp]
  00024	83 c0 64	 add	 eax, 100		; 00000064H
  00027	e9 00 00 00 00	 jmp	 ??1?$List@VShip@@@@QAE@XZ ; List<Ship>::~List<Ship>
__unwindfunclet$??1SimRegion@@UAE@XZ$4:
  0002c	8b 45 ec	 mov	 eax, DWORD PTR _this$[ebp]
  0002f	83 c0 70	 add	 eax, 112		; 00000070H
  00032	e9 00 00 00 00	 jmp	 ??1?$List@VShip@@@@QAE@XZ ; List<Ship>::~List<Ship>
__unwindfunclet$??1SimRegion@@UAE@XZ$5:
  00037	8b 45 ec	 mov	 eax, DWORD PTR _this$[ebp]
  0003a	83 c0 7c	 add	 eax, 124		; 0000007cH
  0003d	e9 00 00 00 00	 jmp	 ??1?$List@VShot@@@@QAE@XZ ; List<Shot>::~List<Shot>
__unwindfunclet$??1SimRegion@@UAE@XZ$6:
  00042	8b 45 ec	 mov	 eax, DWORD PTR _this$[ebp]
  00045	05 88 00 00 00	 add	 eax, 136		; 00000088H
  0004a	e9 00 00 00 00	 jmp	 ??1?$List@VDrone@@@@QAE@XZ ; List<Drone>::~List<Drone>
__unwindfunclet$??1SimRegion@@UAE@XZ$7:
  0004f	8b 45 ec	 mov	 eax, DWORD PTR _this$[ebp]
  00052	05 94 00 00 00	 add	 eax, 148		; 00000094H
  00057	e9 00 00 00 00	 jmp	 ??1?$List@VExplosion@@@@QAE@XZ ; List<Explosion>::~List<Explosion>
__unwindfunclet$??1SimRegion@@UAE@XZ$8:
  0005c	8b 45 ec	 mov	 eax, DWORD PTR _this$[ebp]
  0005f	05 a0 00 00 00	 add	 eax, 160		; 000000a0H
  00064	e9 00 00 00 00	 jmp	 ??1?$List@VDebris@@@@QAE@XZ ; List<Debris>::~List<Debris>
__unwindfunclet$??1SimRegion@@UAE@XZ$9:
  00069	8b 45 ec	 mov	 eax, DWORD PTR _this$[ebp]
  0006c	05 ac 00 00 00	 add	 eax, 172		; 000000acH
  00071	e9 00 00 00 00	 jmp	 ??1?$List@VAsteroid@@@@QAE@XZ ; List<Asteroid>::~List<Asteroid>
__unwindfunclet$??1SimRegion@@UAE@XZ$10:
  00076	68 00 00 00 00	 push	 OFFSET ??1?$List@VContact@@@@QAE@XZ ; List<Contact>::~List<Contact>
  0007b	6a 05		 push	 5
  0007d	6a 0c		 push	 12			; 0000000cH
  0007f	8b 45 ec	 mov	 eax, DWORD PTR _this$[ebp]
  00082	05 b8 00 00 00	 add	 eax, 184		; 000000b8H
  00087	50		 push	 eax
  00088	e8 00 00 00 00	 call	 ??_M@YGXPAXIHP6EX0@Z@Z
  0008d	c3		 ret	 0
__unwindfunclet$??1SimRegion@@UAE@XZ$11:
  0008e	8b 45 ec	 mov	 eax, DWORD PTR _this$[ebp]
  00091	05 f4 00 00 00	 add	 eax, 244		; 000000f4H
  00096	e9 00 00 00 00	 jmp	 ??1?$List@VSimRegion@@@@QAE@XZ ; List<SimRegion>::~List<SimRegion>
__ehhandler$??1SimRegion@@UAE@XZ:
  0009b	8b 54 24 08	 mov	 edx, DWORD PTR [esp+8]
  0009f	8d 42 0c	 lea	 eax, DWORD PTR [edx+12]
  000a2	8b 4a e8	 mov	 ecx, DWORD PTR [edx-24]
  000a5	33 c8		 xor	 ecx, eax
  000a7	e8 00 00 00 00	 call	 @__security_check_cookie@4
  000ac	b8 00 00 00 00	 mov	 eax, OFFSET __ehfuncinfo$??1SimRegion@@UAE@XZ
  000b1	e9 00 00 00 00	 jmp	 ___CxxFrameHandler3
text$x	ENDS
??1SimRegion@@UAE@XZ ENDP				; SimRegion::~SimRegion
; Function compile flags: /Ogtp
;	COMDAT ??_GSimRegion@@UAEPAXI@Z
_TEXT	SEGMENT
___flags$ = 8						; size = 4
??_GSimRegion@@UAEPAXI@Z PROC				; SimRegion::`scalar deleting destructor', COMDAT
; _this$ = ecx
  00000	55		 push	 ebp
  00001	8b ec		 mov	 ebp, esp
  00003	56		 push	 esi
  00004	8b f1		 mov	 esi, ecx
  00006	e8 00 00 00 00	 call	 ??1SimRegion@@UAE@XZ	; SimRegion::~SimRegion
  0000b	f6 45 08 01	 test	 BYTE PTR ___flags$[ebp], 1
  0000f	74 09		 je	 SHORT $LN4@scalar@3
  00011	56		 push	 esi
  00012	e8 00 00 00 00	 call	 ??3@YAXPAX@Z		; operator delete
  00017	83 c4 04	 add	 esp, 4
$LN4@scalar@3:
  0001a	8b c6		 mov	 eax, esi
  0001c	5e		 pop	 esi
  0001d	5d		 pop	 ebp
  0001e	c2 04 00	 ret	 4
??_GSimRegion@@UAEPAXI@Z ENDP				; SimRegion::`scalar deleting destructor'
_TEXT	ENDS
PUBLIC	??0SimRegion@@QAE@PAVSim@@PBDH@Z		; SimRegion::SimRegion
;	COMDAT xdata$x
; File c:\matrix games\source\stars45\sim.h
xdata$x	SEGMENT
__unwindtable$??0SimRegion@@QAE@PAVSim@@PBDH@Z DD 0ffffffffH
	DD	FLAT:__unwindfunclet$??0SimRegion@@QAE@PAVSim@@PBDH@Z$0
	DD	00H
	DD	FLAT:__unwindfunclet$??0SimRegion@@QAE@PAVSim@@PBDH@Z$1
	DD	01H
	DD	FLAT:__unwindfunclet$??0SimRegion@@QAE@PAVSim@@PBDH@Z$2
	DD	02H
	DD	FLAT:__unwindfunclet$??0SimRegion@@QAE@PAVSim@@PBDH@Z$3
	DD	03H
	DD	FLAT:__unwindfunclet$??0SimRegion@@QAE@PAVSim@@PBDH@Z$4
	DD	04H
	DD	FLAT:__unwindfunclet$??0SimRegion@@QAE@PAVSim@@PBDH@Z$5
	DD	05H
	DD	FLAT:__unwindfunclet$??0SimRegion@@QAE@PAVSim@@PBDH@Z$6
	DD	06H
	DD	FLAT:__unwindfunclet$??0SimRegion@@QAE@PAVSim@@PBDH@Z$7
	DD	07H
	DD	FLAT:__unwindfunclet$??0SimRegion@@QAE@PAVSim@@PBDH@Z$8
	DD	08H
	DD	FLAT:__unwindfunclet$??0SimRegion@@QAE@PAVSim@@PBDH@Z$9
__ehfuncinfo$??0SimRegion@@QAE@PAVSim@@PBDH@Z DD 019930522H
	DD	0aH
	DD	FLAT:__unwindtable$??0SimRegion@@QAE@PAVSim@@PBDH@Z
	DD	2 DUP(00H)
	DD	2 DUP(00H)
	DD	00H
	DD	01H
; Function compile flags: /Ogtp
; File c:\matrix games\source\stars45\sim.cpp
xdata$x	ENDS
;	COMDAT ??0SimRegion@@QAE@PAVSim@@PBDH@Z
_TEXT	SEGMENT
__$EHRec$ = -12						; size = 12
_this$ = 8						; size = 4
_s$ = 12						; size = 4
_t$ = 16						; size = 4
??0SimRegion@@QAE@PAVSim@@PBDH@Z PROC			; SimRegion::SimRegion, COMDAT
; _n$ = ecx

; 2234 : {

  00000	55		 push	 ebp
  00001	8b ec		 mov	 ebp, esp
  00003	6a ff		 push	 -1
  00005	68 00 00 00 00	 push	 __ehhandler$??0SimRegion@@QAE@PAVSim@@PBDH@Z
  0000a	64 a1 00 00 00
	00		 mov	 eax, DWORD PTR fs:0
  00010	50		 push	 eax
  00011	53		 push	 ebx
  00012	56		 push	 esi
  00013	a1 00 00 00 00	 mov	 eax, DWORD PTR ___security_cookie
  00018	33 c5		 xor	 eax, ebp
  0001a	50		 push	 eax
  0001b	8d 45 f4	 lea	 eax, DWORD PTR __$EHRec$[ebp]
  0001e	64 a3 00 00 00
	00		 mov	 DWORD PTR fs:0, eax
  00024	8b 75 08	 mov	 esi, DWORD PTR _this$[ebp]
  00027	8b 45 0c	 mov	 eax, DWORD PTR _s$[ebp]
  0002a	51		 push	 ecx
  0002b	8d 4e 0c	 lea	 ecx, DWORD PTR [esi+12]
  0002e	c7 06 00 00 00
	00		 mov	 DWORD PTR [esi], OFFSET ??_7SimRegion@@6B@
  00034	89 46 08	 mov	 DWORD PTR [esi+8], eax
  00037	e8 00 00 00 00	 call	 ??0Text@@QAE@PBD@Z	; Text::Text
  0003c	8b 55 10	 mov	 edx, DWORD PTR _t$[ebp]
  0003f	33 db		 xor	 ebx, ebx
  00041	89 5d fc	 mov	 DWORD PTR __$EHRec$[ebp+8], ebx
  00044	0f 57 c0	 xorps	 xmm0, xmm0
  00047	89 56 14	 mov	 DWORD PTR [esi+20], edx
  0004a	89 5e 18	 mov	 DWORD PTR [esi+24], ebx
  0004d	89 5e 1c	 mov	 DWORD PTR [esi+28], ebx
  00050	f2 0f 11 46 20	 movsd	 QWORD PTR [esi+32], xmm0
  00055	f2 0f 11 46 28	 movsd	 QWORD PTR [esi+40], xmm0
  0005a	f2 0f 11 46 30	 movsd	 QWORD PTR [esi+48], xmm0
  0005f	89 5e 38	 mov	 DWORD PTR [esi+56], ebx
  00062	89 5e 3c	 mov	 DWORD PTR [esi+60], ebx
  00065	88 5e 40	 mov	 BYTE PTR [esi+64], bl
  00068	89 5e 44	 mov	 DWORD PTR [esi+68], ebx
  0006b	89 5e 48	 mov	 DWORD PTR [esi+72], ebx
  0006e	89 5e 4c	 mov	 DWORD PTR [esi+76], ebx
  00071	89 5e 50	 mov	 DWORD PTR [esi+80], ebx
  00074	89 5e 54	 mov	 DWORD PTR [esi+84], ebx
  00077	89 5e 58	 mov	 DWORD PTR [esi+88], ebx
  0007a	89 5e 5c	 mov	 DWORD PTR [esi+92], ebx
  0007d	89 5e 60	 mov	 DWORD PTR [esi+96], ebx
  00080	89 5e 64	 mov	 DWORD PTR [esi+100], ebx
  00083	89 5e 68	 mov	 DWORD PTR [esi+104], ebx
  00086	89 5e 6c	 mov	 DWORD PTR [esi+108], ebx
  00089	89 5e 70	 mov	 DWORD PTR [esi+112], ebx
  0008c	89 5e 74	 mov	 DWORD PTR [esi+116], ebx
  0008f	89 5e 78	 mov	 DWORD PTR [esi+120], ebx
  00092	89 5e 7c	 mov	 DWORD PTR [esi+124], ebx
  00095	89 9e 80 00 00
	00		 mov	 DWORD PTR [esi+128], ebx
  0009b	89 9e 84 00 00
	00		 mov	 DWORD PTR [esi+132], ebx
  000a1	89 9e 88 00 00
	00		 mov	 DWORD PTR [esi+136], ebx
  000a7	89 9e 8c 00 00
	00		 mov	 DWORD PTR [esi+140], ebx
  000ad	89 9e 90 00 00
	00		 mov	 DWORD PTR [esi+144], ebx
  000b3	89 9e 94 00 00
	00		 mov	 DWORD PTR [esi+148], ebx
  000b9	89 9e 98 00 00
	00		 mov	 DWORD PTR [esi+152], ebx
  000bf	89 9e 9c 00 00
	00		 mov	 DWORD PTR [esi+156], ebx
  000c5	89 9e a0 00 00
	00		 mov	 DWORD PTR [esi+160], ebx
  000cb	89 9e a4 00 00
	00		 mov	 DWORD PTR [esi+164], ebx
  000d1	89 9e a8 00 00
	00		 mov	 DWORD PTR [esi+168], ebx
  000d7	89 9e ac 00 00
	00		 mov	 DWORD PTR [esi+172], ebx
  000dd	89 9e b0 00 00
	00		 mov	 DWORD PTR [esi+176], ebx
  000e3	89 9e b4 00 00
	00		 mov	 DWORD PTR [esi+180], ebx
  000e9	68 00 00 00 00	 push	 OFFSET ??1?$List@VContact@@@@QAE@XZ ; List<Contact>::~List<Contact>
  000ee	68 00 00 00 00	 push	 OFFSET ??0?$List@VContact@@@@QAE@XZ ; List<Contact>::List<Contact>
  000f3	6a 05		 push	 5
  000f5	6a 0c		 push	 12			; 0000000cH
  000f7	8d 86 b8 00 00
	00		 lea	 eax, DWORD PTR [esi+184]
  000fd	50		 push	 eax
  000fe	c6 45 fc 09	 mov	 BYTE PTR __$EHRec$[ebp+8], 9
  00102	e8 00 00 00 00	 call	 ??_L@YGXPAXIHP6EX0@Z1@Z
  00107	89 9e f4 00 00
	00		 mov	 DWORD PTR [esi+244], ebx
  0010d	89 9e f8 00 00
	00		 mov	 DWORD PTR [esi+248], ebx
  00113	89 9e fc 00 00
	00		 mov	 DWORD PTR [esi+252], ebx

; 2235 : 	if (sim) {

  00119	8b 46 08	 mov	 eax, DWORD PTR [esi+8]
  0011c	89 9e 00 01 00
	00		 mov	 DWORD PTR [esi+256], ebx
  00122	89 9e 04 01 00
	00		 mov	 DWORD PTR [esi+260], ebx
  00128	3b c3		 cmp	 eax, ebx
  0012a	74 06		 je	 SHORT $LN40@SimRegion@2

; 2236 : 		star_system = sim->GetStarSystem();

  0012c	8b 48 08	 mov	 ecx, DWORD PTR [eax+8]
  0012f	89 4e 18	 mov	 DWORD PTR [esi+24], ecx
$LN40@SimRegion@2:

; 2237 : 	}
; 2238 : }

  00132	8b c6		 mov	 eax, esi
  00134	8b 4d f4	 mov	 ecx, DWORD PTR __$EHRec$[ebp]
  00137	64 89 0d 00 00
	00 00		 mov	 DWORD PTR fs:0, ecx
  0013e	59		 pop	 ecx
  0013f	5e		 pop	 esi
  00140	5b		 pop	 ebx
  00141	8b e5		 mov	 esp, ebp
  00143	5d		 pop	 ebp
  00144	c2 0c 00	 ret	 12			; 0000000cH
_TEXT	ENDS
;	COMDAT text$x
text$x	SEGMENT
__unwindfunclet$??0SimRegion@@QAE@PAVSim@@PBDH@Z$0:
  00000	8b 4d 08	 mov	 ecx, DWORD PTR _this$[ebp]
  00003	83 c1 0c	 add	 ecx, 12			; 0000000cH
  00006	e9 00 00 00 00	 jmp	 ??1Text@@QAE@XZ		; Text::~Text
__unwindfunclet$??0SimRegion@@QAE@PAVSim@@PBDH@Z$1:
  0000b	8b 45 08	 mov	 eax, DWORD PTR _this$[ebp]
  0000e	83 c0 4c	 add	 eax, 76			; 0000004cH
  00011	e9 00 00 00 00	 jmp	 ??1?$List@VShip@@@@QAE@XZ ; List<Ship>::~List<Ship>
__unwindfunclet$??0SimRegion@@QAE@PAVSim@@PBDH@Z$2:
  00016	8b 45 08	 mov	 eax, DWORD PTR _this$[ebp]
  00019	83 c0 58	 add	 eax, 88			; 00000058H
  0001c	e9 00 00 00 00	 jmp	 ??1?$List@VShip@@@@QAE@XZ ; List<Ship>::~List<Ship>
__unwindfunclet$??0SimRegion@@QAE@PAVSim@@PBDH@Z$3:
  00021	8b 45 08	 mov	 eax, DWORD PTR _this$[ebp]
  00024	83 c0 64	 add	 eax, 100		; 00000064H
  00027	e9 00 00 00 00	 jmp	 ??1?$List@VShip@@@@QAE@XZ ; List<Ship>::~List<Ship>
__unwindfunclet$??0SimRegion@@QAE@PAVSim@@PBDH@Z$4:
  0002c	8b 45 08	 mov	 eax, DWORD PTR _this$[ebp]
  0002f	83 c0 70	 add	 eax, 112		; 00000070H
  00032	e9 00 00 00 00	 jmp	 ??1?$List@VShip@@@@QAE@XZ ; List<Ship>::~List<Ship>
__unwindfunclet$??0SimRegion@@QAE@PAVSim@@PBDH@Z$5:
  00037	8b 45 08	 mov	 eax, DWORD PTR _this$[ebp]
  0003a	83 c0 7c	 add	 eax, 124		; 0000007cH
  0003d	e9 00 00 00 00	 jmp	 ??1?$List@VShot@@@@QAE@XZ ; List<Shot>::~List<Shot>
__unwindfunclet$??0SimRegion@@QAE@PAVSim@@PBDH@Z$6:
  00042	8b 45 08	 mov	 eax, DWORD PTR _this$[ebp]
  00045	05 88 00 00 00	 add	 eax, 136		; 00000088H
  0004a	e9 00 00 00 00	 jmp	 ??1?$List@VDrone@@@@QAE@XZ ; List<Drone>::~List<Drone>
__unwindfunclet$??0SimRegion@@QAE@PAVSim@@PBDH@Z$7:
  0004f	8b 45 08	 mov	 eax, DWORD PTR _this$[ebp]
  00052	05 94 00 00 00	 add	 eax, 148		; 00000094H
  00057	e9 00 00 00 00	 jmp	 ??1?$List@VExplosion@@@@QAE@XZ ; List<Explosion>::~List<Explosion>
__unwindfunclet$??0SimRegion@@QAE@PAVSim@@PBDH@Z$8:
  0005c	8b 45 08	 mov	 eax, DWORD PTR _this$[ebp]
  0005f	05 a0 00 00 00	 add	 eax, 160		; 000000a0H
  00064	e9 00 00 00 00	 jmp	 ??1?$List@VDebris@@@@QAE@XZ ; List<Debris>::~List<Debris>
__unwindfunclet$??0SimRegion@@QAE@PAVSim@@PBDH@Z$9:
  00069	8b 45 08	 mov	 eax, DWORD PTR _this$[ebp]
  0006c	05 ac 00 00 00	 add	 eax, 172		; 000000acH
  00071	e9 00 00 00 00	 jmp	 ??1?$List@VAsteroid@@@@QAE@XZ ; List<Asteroid>::~List<Asteroid>
__ehhandler$??0SimRegion@@QAE@PAVSim@@PBDH@Z:
  00076	8b 54 24 08	 mov	 edx, DWORD PTR [esp+8]
  0007a	8d 42 0c	 lea	 eax, DWORD PTR [edx+12]
  0007d	8b 4a f4	 mov	 ecx, DWORD PTR [edx-12]
  00080	33 c8		 xor	 ecx, eax
  00082	e8 00 00 00 00	 call	 @__security_check_cookie@4
  00087	b8 00 00 00 00	 mov	 eax, OFFSET __ehfuncinfo$??0SimRegion@@QAE@PAVSim@@PBDH@Z
  0008c	e9 00 00 00 00	 jmp	 ___CxxFrameHandler3
text$x	ENDS
??0SimRegion@@QAE@PAVSim@@PBDH@Z ENDP			; SimRegion::SimRegion
PUBLIC	?ProcessEventTrigger@Sim@@QAEXHHPBDH@Z		; Sim::ProcessEventTrigger
;	COMDAT xdata$x
; File c:\matrix games\source\foundationex\text.h
xdata$x	SEGMENT
__unwindtable$?ProcessEventTrigger@Sim@@QAEXHHPBDH@Z DD 0ffffffffH
	DD	FLAT:__unwindfunclet$?ProcessEventTrigger@Sim@@QAEXHHPBDH@Z$0
	DD	00H
	DD	FLAT:__unwindfunclet$?ProcessEventTrigger@Sim@@QAEXHHPBDH@Z$1
	DD	00H
	DD	FLAT:__unwindfunclet$?ProcessEventTrigger@Sim@@QAEXHHPBDH@Z$2
__ehfuncinfo$?ProcessEventTrigger@Sim@@QAEXHHPBDH@Z DD 019930522H
	DD	03H
	DD	FLAT:__unwindtable$?ProcessEventTrigger@Sim@@QAEXHHPBDH@Z
	DD	2 DUP(00H)
	DD	2 DUP(00H)
	DD	00H
	DD	01H
; Function compile flags: /Ogtp
; File c:\matrix games\source\stars45\sim.cpp
xdata$x	ENDS
;	COMDAT ?ProcessEventTrigger@Sim@@QAEXHHPBDH@Z
_TEXT	SEGMENT
$T262708 = -48						; size = 8
$T262706 = -40						; size = 8
_ship_name$ = -32					; size = 8
_iter$ = -24						; size = 8
__$EHRec$ = -12						; size = 12
_this$ = 8						; size = 4
_type$ = 12						; size = 4
_event_id$ = 16						; size = 4
_ship$ = 20						; size = 4
_param$ = 24						; size = 4
?ProcessEventTrigger@Sim@@QAEXHHPBDH@Z PROC		; Sim::ProcessEventTrigger, COMDAT

; 1858 : {

  00000	55		 push	 ebp
  00001	8b ec		 mov	 ebp, esp
  00003	6a ff		 push	 -1
  00005	68 00 00 00 00	 push	 __ehhandler$?ProcessEventTrigger@Sim@@QAEXHHPBDH@Z
  0000a	64 a1 00 00 00
	00		 mov	 eax, DWORD PTR fs:0
  00010	50		 push	 eax
  00011	83 ec 28	 sub	 esp, 40			; 00000028H
  00014	53		 push	 ebx
  00015	56		 push	 esi
  00016	57		 push	 edi
  00017	a1 00 00 00 00	 mov	 eax, DWORD PTR ___security_cookie
  0001c	33 c5		 xor	 eax, ebp
  0001e	50		 push	 eax
  0001f	8d 45 f4	 lea	 eax, DWORD PTR __$EHRec$[ebp]
  00022	64 a3 00 00 00
	00		 mov	 DWORD PTR fs:0, eax

; 1859 : 	Text ship_name = ship;

  00028	8b 45 14	 mov	 eax, DWORD PTR _ship$[ebp]
  0002b	50		 push	 eax
  0002c	8d 4d e0	 lea	 ecx, DWORD PTR _ship_name$[ebp]
  0002f	e8 00 00 00 00	 call	 ??0Text@@QAE@PBD@Z	; Text::Text

; 1860 : 
; 1861 : 	ListIter<MissionEvent> iter = events;

  00034	8b 4d 08	 mov	 ecx, DWORD PTR _this$[ebp]
  00037	c7 45 fc 00 00
	00 00		 mov	 DWORD PTR __$EHRec$[ebp+8], 0
  0003e	81 c1 a0 00 00
	00		 add	 ecx, 160		; 000000a0H

; 1862 : 	while (++iter) {

  00044	8d 55 e8	 lea	 edx, DWORD PTR _iter$[ebp]
  00047	89 4d e8	 mov	 DWORD PTR _iter$[ebp], ecx
  0004a	c7 45 ec ff ff
	ff ff		 mov	 DWORD PTR _iter$[ebp+4], -1
  00051	e8 00 00 00 00	 call	 ?next@?$ListIter@VMissionEvent@@@@QAEPAVMissionEvent@@XZ ; ListIter<MissionEvent>::next
  00056	85 c0		 test	 eax, eax
  00058	0f 84 de 00 00
	00		 je	 $LN12@ProcessEve
$LN13@ProcessEve:

; 1863 : 		MissionEvent* event = iter.value();

  0005e	8d 45 e8	 lea	 eax, DWORD PTR _iter$[ebp]
  00061	e8 00 00 00 00	 call	 ?value@?$ListIter@VMissionEvent@@@@QAEPAVMissionEvent@@XZ ; ListIter<MissionEvent>::value
  00066	8b f8		 mov	 edi, eax

; 1864 : 
; 1865 : 		if (event->IsPending() && event->Trigger() == type) {

  00068	83 7f 0c 00	 cmp	 DWORD PTR [edi+12], 0
  0006c	0f 85 ba 00 00
	00		 jne	 $LN1@ProcessEve
  00072	8b 45 0c	 mov	 eax, DWORD PTR _type$[ebp]
  00075	39 87 98 00 00
	00		 cmp	 DWORD PTR [edi+152], eax
  0007b	0f 85 ab 00 00
	00		 jne	 $LN1@ProcessEve

; 1866 : 			switch (type) {

  00081	48		 dec	 eax
  00082	83 f8 08	 cmp	 eax, 8
  00085	0f 87 a1 00 00
	00		 ja	 $LN1@ProcessEve
  0008b	0f b6 90 00 00
	00 00		 movzx	 edx, BYTE PTR $LN32@ProcessEve[eax]
  00092	ff 24 95 00 00
	00 00		 jmp	 DWORD PTR $LN38@ProcessEve[edx*4]
$LN8@ProcessEve:

; 1867 : 			case MissionEvent::TRIGGER_DAMAGE:
; 1868 : 			case MissionEvent::TRIGGER_DESTROYED:
; 1869 : 			case MissionEvent::TRIGGER_JUMP:
; 1870 : 			case MissionEvent::TRIGGER_LAUNCH:
; 1871 : 			case MissionEvent::TRIGGER_DOCK:
; 1872 : 			case MissionEvent::TRIGGER_TARGET:
; 1873 : 				if (event->TriggerParam() <= param) {

  00099	33 c9		 xor	 ecx, ecx
  0009b	8b d7		 mov	 edx, edi
  0009d	e8 00 00 00 00	 call	 ?TriggerParam@MissionEvent@@QBEHH@Z ; MissionEvent::TriggerParam
  000a2	3b 45 18	 cmp	 eax, DWORD PTR _param$[ebp]
  000a5	0f 8f 81 00 00
	00		 jg	 $LN1@ProcessEve

; 1874 : 					if (ship_name.indexOf(event->TriggerShip()) == 0)

  000ab	8d 75 d8	 lea	 esi, DWORD PTR $T262706[ebp]
  000ae	8b c7		 mov	 eax, edi
  000b0	e8 00 00 00 00	 call	 ?TriggerShip@MissionEvent@@QBE?AVText@@XZ ; MissionEvent::TriggerShip
  000b5	c6 45 fc 01	 mov	 BYTE PTR __$EHRec$[ebp+8], 1
  000b9	8b 00		 mov	 eax, DWORD PTR [eax]
  000bb	50		 push	 eax
  000bc	8d 4d e0	 lea	 ecx, DWORD PTR _ship_name$[ebp]
  000bf	e8 00 00 00 00	 call	 ?indexOf@Text@@QBEHPBD@Z ; Text::indexOf
  000c4	85 c0		 test	 eax, eax
  000c6	8b ce		 mov	 ecx, esi
  000c8	0f 94 c3	 sete	 bl
  000cb	c6 45 fc 00	 mov	 BYTE PTR __$EHRec$[ebp+8], 0
  000cf	e8 00 00 00 00	 call	 ??1Text@@QAE@XZ		; Text::~Text
  000d4	84 db		 test	 bl, bl
  000d6	74 54		 je	 SHORT $LN1@ProcessEve

; 1875 : 					event->Activate();
; 1876 : 				}
; 1877 : 				break;

  000d8	eb 4b		 jmp	 SHORT $LN37@ProcessEve
$LN5@ProcessEve:

; 1878 : 
; 1879 : 			case MissionEvent::TRIGGER_NAVPT:
; 1880 : 				if (event->TriggerParam() == param) {

  000da	33 c9		 xor	 ecx, ecx
  000dc	8b d7		 mov	 edx, edi
  000de	e8 00 00 00 00	 call	 ?TriggerParam@MissionEvent@@QBEHH@Z ; MissionEvent::TriggerParam
  000e3	3b 45 18	 cmp	 eax, DWORD PTR _param$[ebp]
  000e6	75 44		 jne	 SHORT $LN1@ProcessEve

; 1881 : 					if (ship_name.indexOf(event->TriggerShip()) == 0)

  000e8	8d 75 d0	 lea	 esi, DWORD PTR $T262708[ebp]
  000eb	8b c7		 mov	 eax, edi
  000ed	e8 00 00 00 00	 call	 ?TriggerShip@MissionEvent@@QBE?AVText@@XZ ; MissionEvent::TriggerShip
  000f2	c6 45 fc 02	 mov	 BYTE PTR __$EHRec$[ebp+8], 2
  000f6	8b 00		 mov	 eax, DWORD PTR [eax]
  000f8	50		 push	 eax
  000f9	8d 4d e0	 lea	 ecx, DWORD PTR _ship_name$[ebp]
  000fc	e8 00 00 00 00	 call	 ?indexOf@Text@@QBEHPBD@Z ; Text::indexOf
  00101	85 c0		 test	 eax, eax
  00103	8b ce		 mov	 ecx, esi
  00105	0f 94 c3	 sete	 bl
  00108	c6 45 fc 00	 mov	 BYTE PTR __$EHRec$[ebp+8], 0
  0010c	e8 00 00 00 00	 call	 ??1Text@@QAE@XZ		; Text::~Text
  00111	84 db		 test	 bl, bl
  00113	74 17		 je	 SHORT $LN1@ProcessEve

; 1882 : 					event->Activate();
; 1883 : 				}
; 1884 : 				break;

  00115	eb 0e		 jmp	 SHORT $LN37@ProcessEve
$LN2@ProcessEve:

; 1885 : 
; 1886 : 			case MissionEvent::TRIGGER_EVENT:
; 1887 : 			case MissionEvent::TRIGGER_SKIPPED:
; 1888 : 				if (event->TriggerParam() == event_id)

  00117	33 c9		 xor	 ecx, ecx
  00119	8b d7		 mov	 edx, edi
  0011b	e8 00 00 00 00	 call	 ?TriggerParam@MissionEvent@@QBEHH@Z ; MissionEvent::TriggerParam
  00120	3b 45 10	 cmp	 eax, DWORD PTR _event_id$[ebp]
  00123	75 07		 jne	 SHORT $LN1@ProcessEve
$LN37@ProcessEve:

; 1889 : 				event->Activate();

  00125	8b cf		 mov	 ecx, edi
  00127	e8 00 00 00 00	 call	 ?Activate@MissionEvent@@QAEXXZ ; MissionEvent::Activate
$LN1@ProcessEve:

; 1862 : 	while (++iter) {

  0012c	8d 55 e8	 lea	 edx, DWORD PTR _iter$[ebp]
  0012f	e8 00 00 00 00	 call	 ?next@?$ListIter@VMissionEvent@@@@QAEPAVMissionEvent@@XZ ; ListIter<MissionEvent>::next
  00134	85 c0		 test	 eax, eax
  00136	0f 85 22 ff ff
	ff		 jne	 $LN13@ProcessEve
$LN12@ProcessEve:

; 1890 : 				break;
; 1891 : 			}
; 1892 : 		}
; 1893 : 	}
; 1894 : }

  0013c	8d 4d e0	 lea	 ecx, DWORD PTR _ship_name$[ebp]
  0013f	c7 45 fc ff ff
	ff ff		 mov	 DWORD PTR __$EHRec$[ebp+8], -1
  00146	e8 00 00 00 00	 call	 ??1Text@@QAE@XZ		; Text::~Text
  0014b	8b 4d f4	 mov	 ecx, DWORD PTR __$EHRec$[ebp]
  0014e	64 89 0d 00 00
	00 00		 mov	 DWORD PTR fs:0, ecx
  00155	59		 pop	 ecx
  00156	5f		 pop	 edi
  00157	5e		 pop	 esi
  00158	5b		 pop	 ebx
  00159	8b e5		 mov	 esp, ebp
  0015b	5d		 pop	 ebp
  0015c	c2 14 00	 ret	 20			; 00000014H
  0015f	90		 npad	 1
$LN38@ProcessEve:
  00160	00 00 00 00	 DD	 $LN8@ProcessEve
  00164	00 00 00 00	 DD	 $LN5@ProcessEve
  00168	00 00 00 00	 DD	 $LN2@ProcessEve
$LN32@ProcessEve:
  0016c	00		 DB	 0
  0016d	00		 DB	 0
  0016e	00		 DB	 0
  0016f	00		 DB	 0
  00170	00		 DB	 0
  00171	01		 DB	 1
  00172	02		 DB	 2
  00173	02		 DB	 2
  00174	00		 DB	 0
_TEXT	ENDS
;	COMDAT text$x
text$x	SEGMENT
__unwindfunclet$?ProcessEventTrigger@Sim@@QAEXHHPBDH@Z$0:
  00000	8d 4d e0	 lea	 ecx, DWORD PTR _ship_name$[ebp]
  00003	e9 00 00 00 00	 jmp	 ??1Text@@QAE@XZ		; Text::~Text
__unwindfunclet$?ProcessEventTrigger@Sim@@QAEXHHPBDH@Z$1:
  00008	8d 4d d8	 lea	 ecx, DWORD PTR $T262706[ebp]
  0000b	e9 00 00 00 00	 jmp	 ??1Text@@QAE@XZ		; Text::~Text
__unwindfunclet$?ProcessEventTrigger@Sim@@QAEXHHPBDH@Z$2:
  00010	8d 4d d0	 lea	 ecx, DWORD PTR $T262708[ebp]
  00013	e9 00 00 00 00	 jmp	 ??1Text@@QAE@XZ		; Text::~Text
__ehhandler$?ProcessEventTrigger@Sim@@QAEXHHPBDH@Z:
  00018	8b 54 24 08	 mov	 edx, DWORD PTR [esp+8]
  0001c	8d 42 0c	 lea	 eax, DWORD PTR [edx+12]
  0001f	8b 4a c8	 mov	 ecx, DWORD PTR [edx-56]
  00022	33 c8		 xor	 ecx, eax
  00024	e8 00 00 00 00	 call	 @__security_check_cookie@4
  00029	b8 00 00 00 00	 mov	 eax, OFFSET __ehfuncinfo$?ProcessEventTrigger@Sim@@QAEXHHPBDH@Z
  0002e	e9 00 00 00 00	 jmp	 ___CxxFrameHandler3
text$x	ENDS
?ProcessEventTrigger@Sim@@QAEXHHPBDH@Z ENDP		; Sim::ProcessEventTrigger
PUBLIC	?FindNearestSpaceRegion@Sim@@QAEPAVSimRegion@@PAVOrbital@@@Z ; Sim::FindNearestSpaceRegion
; Function compile flags: /Ogtp
;	COMDAT ?FindNearestSpaceRegion@Sim@@QAEPAVSimRegion@@PAVOrbital@@@Z
_TEXT	SEGMENT
_iter$120026 = -16					; size = 8
_rgn$ = -8						; size = 8
_this$ = 8						; size = 4
_body$ = 12						; size = 4
?FindNearestSpaceRegion@Sim@@QAEPAVSimRegion@@PAVOrbital@@@Z PROC ; Sim::FindNearestSpaceRegion, COMDAT

; 1419 : {

  00000	55		 push	 ebp
  00001	8b ec		 mov	 ebp, esp
  00003	83 e4 f8	 and	 esp, -8			; fffffff8H
  00006	83 ec 14	 sub	 esp, 20			; 00000014H
  00009	53		 push	 ebx

; 1420 : 	SimRegion*  result   = 0;

  0000a	33 db		 xor	 ebx, ebx
  0000c	56		 push	 esi
  0000d	57		 push	 edi

; 1421 : 
; 1422 : 	if (!body)

  0000e	39 5d 0c	 cmp	 DWORD PTR _body$[ebp], ebx
  00011	75 0b		 jne	 SHORT $LN8@FindNeares

; 1423 : 	return result;

  00013	33 c0		 xor	 eax, eax

; 1434 : 				}
; 1435 : 			}
; 1436 : 		}
; 1437 : 	}
; 1438 : 	
; 1439 : 	return result;
; 1440 : }

  00015	5f		 pop	 edi
  00016	5e		 pop	 esi
  00017	5b		 pop	 ebx
  00018	8b e5		 mov	 esp, ebp
  0001a	5d		 pop	 ebp
  0001b	c2 08 00	 ret	 8
$LN8@FindNeares:

; 1424 : 
; 1425 : 	ListIter<SimRegion> rgn = regions;

  0001e	8b 45 08	 mov	 eax, DWORD PTR _this$[ebp]
